

Microchip MPLAB XC8 Assembler V2.20 build 20200408173844 
                                                                                               Wed Aug 26 16:17:32 2020

Microchip MPLAB XC8 C Compiler v2.20 (Free license) build 20200408173844 Og1 
     1                           	processor	18F16Q41
     2                           	fnconf	rparam,??,?,0
     3                           	pagewidth 120
     4                           	opt	flic
     5                           	psect	nvCOMRAM,global,class=COMRAM,space=1,delta=1,lowdata,noexec
     6                           	psect	mediumconst,global,reloc=2,class=MEDIUMCONST,delta=1,noexec
     7                           	psect	cinit,global,reloc=2,class=CODE,delta=1
     8                           	psect	bssCOMRAM,global,class=COMRAM,space=1,delta=1,lowdata,noexec
     9                           	psect	cstackCOMRAM,global,class=COMRAM,space=1,delta=1,lowdata,noexec
    10                           	psect	text0,global,reloc=2,class=CODE,delta=1
    11                           	psect	text1,global,reloc=2,class=CODE,delta=1
    12                           	psect	text2,global,reloc=2,class=CODE,delta=1
    13                           	psect	text3,global,reloc=2,class=CODE,delta=1
    14                           	psect	text4,global,reloc=2,class=CODE,delta=1
    15                           	psect	text5,global,reloc=2,class=CODE,delta=1
    16                           	psect	text6,global,reloc=2,class=CODE,delta=1
    17                           	psect	text7,global,reloc=2,class=CODE,delta=1
    18                           	psect	text8,global,reloc=2,class=CODE,delta=1
    19                           	psect	text9,global,reloc=2,class=CODE,delta=1
    20                           	psect	text10,global,reloc=2,class=CODE,delta=1
    21                           	psect	text11,global,reloc=2,class=CODE,delta=1
    22                           	psect	text12,global,reloc=2,class=CODE,delta=1
    23                           	psect	text13,global,reloc=2,class=CODE,delta=1
    24                           	psect	text14,global,reloc=2,class=CODE,delta=1
    25                           	psect	text15,global,reloc=2,class=CODE,delta=1
    26                           	psect	text16,global,reloc=2,class=CODE,delta=1
    27                           	psect	text17,global,reloc=2,class=CODE,delta=1
    28                           	psect	text18,global,reloc=2,class=CODE,delta=1,group=3
    29                           	psect	text19,global,reloc=2,class=CODE,delta=1,group=1
    30                           	psect	text20,global,reloc=2,class=CODE,delta=1,group=1
    31                           	psect	text21,global,reloc=2,class=CODE,delta=1,group=3
    32                           	psect	text22,global,reloc=2,class=CODE,delta=1
    33                           	psect	text23,global,reloc=2,class=CODE,delta=1
    34                           	psect	text24,global,reloc=2,class=CODE,delta=1
    35                           	psect	text25,global,reloc=2,class=CODE,delta=1
    36                           	psect	text26,global,reloc=2,class=CODE,delta=1
    37                           	psect	text27,global,reloc=2,class=CODE,delta=1
    38                           	psect	ivt0x8,global,reloc=2,class=CODE,delta=1,noexec,keep,optim=
    39                           	psect	intsave_regs,global,class=BIGRAM,space=1,delta=1,noexec
    40                           	psect	rparam,global,class=COMRAM,space=1,delta=1,noexec
    41                           	psect	idloc,global,abs,ovrld,class=IDLOC,space=5,delta=1,noexec
    42                           	psect	config,global,abs,ovrld,class=CONFIG,space=4,delta=1,noexec
    43  0000                     
    44                           ; Version 2.30
    45                           ; Generated 12/06/2020 GMT
    46                           ; 
    47                           ; Copyright © 2020, Microchip Technology Inc. and its subsidiaries ("Microchip")
    48                           ; All rights reserved.
    49                           ; 
    50                           ; This software is developed by Microchip Technology Inc. and its subsidiaries ("Microch
      +                          ip").
    51                           ; 
    52                           ; Redistribution and use in source and binary forms, with or without modification, are
    53                           ; permitted provided that the following conditions are met:
    54                           ; 
    55                           ;     1. Redistributions of source code must retain the above copyright notice, this lis
      +                          t of
    56                           ;        conditions and the following disclaimer.
    57                           ; 
    58                           ;     2. Redistributions in binary form must reproduce the above copyright notice, this 
      +                          list
    59                           ;        of conditions and the following disclaimer in the documentation and/or other
    60                           ;        materials provided with the distribution.
    61                           ; 
    62                           ;     3. Microchip's name may not be used to endorse or promote products derived from th
      +                          is
    63                           ;        software without specific prior written permission.
    64                           ; 
    65                           ; THIS SOFTWARE IS PROVIDED BY MICROCHIP "AS IS" AND ANY EXPRESS OR IMPLIED WARRANTIES,
    66                           ; INCLUDING, BUT NOT LIMITED TO, THE IMPLIED WARRANTIES OF MERCHANTABILITY AND FITNESS F
      +                          OR
    67                           ; PURPOSE ARE DISCLAIMED.  IN NO EVENT SHALL MICROCHIP BE LIABLE FOR ANY DIRECT, INDIREC
      +                          T,
    68                           ; INCIDENTAL, SPECIAL, EXEMPLARY, OR CONSEQUENTIAL DAMAGES (INCLUDING BUT NOT LIMITED TO
    69                           ; PROCUREMENT OF SUBSTITUTE GOODS OR SERVICES; LOSS OF USE, DATA OR PROFITS; OR BUSINESS
    70                           ; INTERRUPTION) HOWSOEVER CAUSED AND ON ANY THEORY OF LIABILITY, WHETHER IN CONTRACT, ST
      +                          RICT
    71                           ; LIABILITY, OR TORT (INCLUDING NEGLIGENCE OR OTHERWISE) ARISING IN ANY WAY OUT OF THE U
      +                          SE OF
    72                           ; THIS SOFTWARE, EVEN IF ADVISED OF THE POSSIBILITY OF SUCH DAMAGE.
    73                           ; 
    74                           ; 
    75                           ; Code-generator required, PIC18F16Q41 Definitions
    76                           ; 
    77                           ; SFR Addresses
    78  0000                     
    79 ;; Function _UART1_DefaultFramingErrorHandler is unused but had its address taken
    80  0000                     
    81 ;; Function _UART1_DefaultOverrunErrorHandler is unused but had its address taken
    82  0000                     
    83 ;; Function _UART1_DefaultErrorHandler is unused but had its address taken
    84  0000                     
    85                           	psect	nvCOMRAM
    86  00054E                     __pnvCOMRAM:
    87                           	callstack 0
    88  00054E                     _opa_config:
    89                           	callstack 0
    90  00054E                     	ds	2
    91  000550                     _UART1_ErrorHandler:
    92                           	callstack 0
    93  000550                     	ds	2
    94  000552                     _UART1_OverrunErrorHandler:
    95                           	callstack 0
    96  000552                     	ds	2
    97  000554                     _UART1_FramingErrorHandler:
    98                           	callstack 0
    99  000554                     	ds	2
   100  0000                     _CLCDATAbits	set	212
   101  0000                     _CLCnCON	set	214
   102  0000                     _CLCDATA	set	212
   103  0000                     _CLCnGLS3	set	223
   104  0000                     _CLCnGLS2	set	222
   105  0000                     _CLCnGLS1	set	221
   106  0000                     _CLCnGLS0	set	220
   107  0000                     _CLCnSEL3	set	219
   108  0000                     _CLCnSEL2	set	218
   109  0000                     _CLCnSEL1	set	217
   110  0000                     _CLCnSEL0	set	216
   111  0000                     _CLCnPOL	set	215
   112  0000                     _CLCSELECT	set	213
   113  0000                     _OPA1OFFSET	set	168
   114  0000                     _OPA1HWCbits	set	167
   115  0000                     _OPA1CON1bits	set	164
   116  0000                     _OPA1CON3bits	set	166
   117  0000                     _OPA1CON2bits	set	165
   118  0000                     _OPA1CON0bits	set	163
   119  0000                     _OPA1CON0	set	163
   120  0000                     _OPA1ORS	set	169
   121  0000                     _OPA1HWC	set	167
   122  0000                     _OPA1CON3	set	166
   123  0000                     _OPA1CON2	set	165
   124  0000                     _OPA1CON1	set	164
   125  0000                     _PMD5	set	104
   126  0000                     _PMD4	set	103
   127  0000                     _PMD3	set	102
   128  0000                     _PMD2	set	101
   129  0000                     _PMD1	set	100
   130  0000                     _PMD0	set	99
   131  0000                     _ACTCON	set	172
   132  0000                     _OSCTUNE	set	176
   133  0000                     _OSCFRQ	set	177
   134  0000                     _OSCEN	set	179
   135  0000                     _OSCCON3	set	175
   136  0000                     _OSCCON1	set	173
   137  0000                     _U1TXB	set	675
   138  0000                     _U1RXB	set	673
   139  0000                     _U1ERRIRbits	set	690
   140  0000                     _U1CON0bits	set	683
   141  0000                     _U1ERRIE	set	691
   142  0000                     _U1ERRIR	set	690
   143  0000                     _U1UIR	set	689
   144  0000                     _U1FIFO	set	688
   145  0000                     _U1BRGH	set	687
   146  0000                     _U1BRGL	set	686
   147  0000                     _U1CON2	set	685
   148  0000                     _U1CON1	set	684
   149  0000                     _U1CON0	set	683
   150  0000                     _U1P3H	set	682
   151  0000                     _U1P3L	set	681
   152  0000                     _U1P2H	set	680
   153  0000                     _U1P2L	set	679
   154  0000                     _U1P1H	set	678
   155  0000                     _U1P1L	set	677
   156  0000                     _U1RXPPS	set	626
   157  0000                     _T2INPPS	set	584
   158  0000                     _RB7PPS	set	528
   159  0000                     _PR2	set	797
   160  0000                     _TMR2	set	796
   161  0000                     _T2CONbits	set	798
   162  0000                     _T2RSTbits	set	801
   163  0000                     _T2HLTbits	set	799
   164  0000                     _T2CON	set	798
   165  0000                     _T2TMR	set	796
   166  0000                     _T2PR	set	797
   167  0000                     _T2RST	set	801
   168  0000                     _T2HLT	set	799
   169  0000                     _T2CLKCON	set	800
   170  0000                     _INLVLC	set	1044
   171  0000                     _INLVLB	set	1036
   172  0000                     _INLVLA	set	1028
   173  0000                     _SLRCONC	set	1043
   174  0000                     _SLRCONB	set	1035
   175  0000                     _SLRCONA	set	1027
   176  0000                     _ODCONC	set	1042
   177  0000                     _ODCONB	set	1034
   178  0000                     _ODCONA	set	1026
   179  0000                     _WPUC	set	1041
   180  0000                     _WPUA	set	1025
   181  0000                     _WPUB	set	1033
   182  0000                     _ANSELA	set	1024
   183  0000                     _ANSELB	set	1032
   184  0000                     _ANSELC	set	1040
   185  0000                     _PIR3bits	set	1206
   186  0000                     _PIE0bits	set	1192
   187  0000                     _PIR0bits	set	1203
   188  0000                     _LATCbits	set	1216
   189  0000                     _PORTAbits	set	1230
   190  0000                     _INTCON0bits	set	1238
   191  0000                     _PIR4bits	set	1207
   192  0000                     _TRISC	set	1224
   193  0000                     _TRISB	set	1223
   194  0000                     _TRISA	set	1222
   195  0000                     _LATC	set	1216
   196  0000                     _LATB	set	1215
   197  0000                     _LATA	set	1214
   198                           
   199                           	psect	mediumconst
   200  00FD5C                     __pmediumconst:
   201                           	callstack 0
   202  00FD5C  00                 	db	0
   203  00FD5D                     STR_4:
   204  00FD5D  50                 	db	80	;'P'
   205  00FD5E  72                 	db	114	;'r'
   206  00FD5F  65                 	db	101	;'e'
   207  00FD60  73                 	db	115	;'s'
   208  00FD61  73                 	db	115	;'s'
   209  00FD62  20                 	db	32
   210  00FD63  53                 	db	83	;'S'
   211  00FD64  57                 	db	87	;'W'
   212  00FD65  30                 	db	48	;'0'
   213  00FD66  20                 	db	32
   214  00FD67  61                 	db	97	;'a'
   215  00FD68  66                 	db	102	;'f'
   216  00FD69  74                 	db	116	;'t'
   217  00FD6A  65                 	db	101	;'e'
   218  00FD6B  72                 	db	114	;'r'
   219  00FD6C  20                 	db	32
   220  00FD6D  73                 	db	115	;'s'
   221  00FD6E  65                 	db	101	;'e'
   222  00FD6F  6C                 	db	108	;'l'
   223  00FD70  65                 	db	101	;'e'
   224  00FD71  63                 	db	99	;'c'
   225  00FD72  74                 	db	116	;'t'
   226  00FD73  69                 	db	105	;'i'
   227  00FD74  6E                 	db	110	;'n'
   228  00FD75  67                 	db	103	;'g'
   229  00FD76  20                 	db	32
   230  00FD77  6D                 	db	109	;'m'
   231  00FD78  6F                 	db	111	;'o'
   232  00FD79  64                 	db	100	;'d'
   233  00FD7A  65                 	db	101	;'e'
   234  00FD7B  20                 	db	32
   235  00FD7C  6F                 	db	111	;'o'
   236  00FD7D  66                 	db	102	;'f'
   237  00FD7E  20                 	db	32
   238  00FD7F  6F                 	db	111	;'o'
   239  00FD80  70                 	db	112	;'p'
   240  00FD81  65                 	db	101	;'e'
   241  00FD82  72                 	db	114	;'r'
   242  00FD83  61                 	db	97	;'a'
   243  00FD84  74                 	db	116	;'t'
   244  00FD85  69                 	db	105	;'i'
   245  00FD86  6F                 	db	111	;'o'
   246  00FD87  6E                 	db	110	;'n'
   247  00FD88  20                 	db	32
   248  00FD89  74                 	db	116	;'t'
   249  00FD8A  6F                 	db	111	;'o'
   250  00FD8B  20                 	db	32
   251  00FD8C  72                 	db	114	;'r'
   252  00FD8D  65                 	db	101	;'e'
   253  00FD8E  63                 	db	99	;'c'
   254  00FD8F  6F                 	db	111	;'o'
   255  00FD90  6E                 	db	110	;'n'
   256  00FD91  66                 	db	102	;'f'
   257  00FD92  69                 	db	105	;'i'
   258  00FD93  67                 	db	103	;'g'
   259  00FD94  75                 	db	117	;'u'
   260  00FD95  72                 	db	114	;'r'
   261  00FD96  65                 	db	101	;'e'
   262  00FD97  20                 	db	32
   263  00FD98  4F                 	db	79	;'O'
   264  00FD99  50                 	db	80	;'P'
   265  00FD9A  41                 	db	65	;'A'
   266  00FD9B  20                 	db	32
   267  00FD9C  6D                 	db	109	;'m'
   268  00FD9D  6F                 	db	111	;'o'
   269  00FD9E  64                 	db	100	;'d'
   270  00FD9F  75                 	db	117	;'u'
   271  00FDA0  6C                 	db	108	;'l'
   272  00FDA1  65                 	db	101	;'e'
   273  00FDA2  2E                 	db	46
   274  00FDA3  20                 	db	32
   275  00FDA4  0D                 	db	13
   276  00FDA5  0A                 	db	10
   277  00FDA6  00                 	db	0
   278  00FDA7                     STR_6:
   279  00FDA7  2D                 	db	45
   280  00FDA8  2D                 	db	45
   281  00FDA9  2D                 	db	45
   282  00FDAA  2D                 	db	45
   283  00FDAB  2D                 	db	45
   284  00FDAC  2D                 	db	45
   285  00FDAD  2D                 	db	45
   286  00FDAE  2D                 	db	45
   287  00FDAF  2D                 	db	45
   288  00FDB0  2D                 	db	45
   289  00FDB1  2D                 	db	45
   290  00FDB2  2D                 	db	45
   291  00FDB3  2D                 	db	45
   292  00FDB4  2D                 	db	45
   293  00FDB5  2D                 	db	45
   294  00FDB6  2D                 	db	45
   295  00FDB7  2D                 	db	45
   296  00FDB8  2D                 	db	45
   297  00FDB9  2D                 	db	45
   298  00FDBA  2D                 	db	45
   299  00FDBB  2D                 	db	45
   300  00FDBC  2D                 	db	45
   301  00FDBD  2D                 	db	45
   302  00FDBE  2D                 	db	45
   303  00FDBF  2D                 	db	45
   304  00FDC0  2D                 	db	45
   305  00FDC1  2D                 	db	45
   306  00FDC2  2D                 	db	45
   307  00FDC3  2D                 	db	45
   308  00FDC4  2D                 	db	45
   309  00FDC5  2D                 	db	45
   310  00FDC6  2D                 	db	45
   311  00FDC7  2D                 	db	45
   312  00FDC8  2D                 	db	45
   313  00FDC9  2D                 	db	45
   314  00FDCA  2D                 	db	45
   315  00FDCB  2D                 	db	45
   316  00FDCC  2D                 	db	45
   317  00FDCD  2D                 	db	45
   318  00FDCE  2D                 	db	45
   319  00FDCF  2D                 	db	45
   320  00FDD0  2D                 	db	45
   321  00FDD1  2D                 	db	45
   322  00FDD2  2D                 	db	45
   323  00FDD3  2D                 	db	45
   324  00FDD4  2D                 	db	45
   325  00FDD5  2D                 	db	45
   326  00FDD6  2D                 	db	45
   327  00FDD7  2D                 	db	45
   328  00FDD8  2D                 	db	45
   329  00FDD9  2D                 	db	45
   330  00FDDA  2D                 	db	45
   331  00FDDB  2D                 	db	45
   332  00FDDC  2D                 	db	45
   333  00FDDD  2D                 	db	45
   334  00FDDE  2D                 	db	45
   335  00FDDF  2D                 	db	45
   336  00FDE0  2D                 	db	45
   337  00FDE1  2D                 	db	45
   338  00FDE2  2D                 	db	45
   339  00FDE3  2D                 	db	45
   340  00FDE4  2D                 	db	45
   341  00FDE5  2D                 	db	45
   342  00FDE6  2D                 	db	45
   343  00FDE7  2D                 	db	45
   344  00FDE8  2D                 	db	45
   345  00FDE9  2D                 	db	45
   346  00FDEA  0D                 	db	13
   347  00FDEB  0A                 	db	10
   348  00FDEC  00                 	db	0
   349  00FDED                     STR_11:
   350  00FDED  4F                 	db	79	;'O'
   351  00FDEE  50                 	db	80	;'P'
   352  00FDEF  41                 	db	65	;'A'
   353  00FDF0  20                 	db	32
   354  00FDF1  43                 	db	67	;'C'
   355  00FDF2  6F                 	db	111	;'o'
   356  00FDF3  6E                 	db	110	;'n'
   357  00FDF4  66                 	db	102	;'f'
   358  00FDF5  69                 	db	105	;'i'
   359  00FDF6  67                 	db	103	;'g'
   360  00FDF7  75                 	db	117	;'u'
   361  00FDF8  72                 	db	114	;'r'
   362  00FDF9  61                 	db	97	;'a'
   363  00FDFA  74                 	db	116	;'t'
   364  00FDFB  69                 	db	105	;'i'
   365  00FDFC  6F                 	db	111	;'o'
   366  00FDFD  6E                 	db	110	;'n'
   367  00FDFE  3A                 	db	58	;':'
   368  00FDFF  20                 	db	32
   369  00FE00  4E                 	db	78	;'N'
   370  00FE01  6F                 	db	111	;'o'
   371  00FE02  6E                 	db	110	;'n'
   372  00FE03  2D                 	db	45
   373  00FE04  49                 	db	73	;'I'
   374  00FE05  6E                 	db	110	;'n'
   375  00FE06  76                 	db	118	;'v'
   376  00FE07  65                 	db	101	;'e'
   377  00FE08  72                 	db	114	;'r'
   378  00FE09  74                 	db	116	;'t'
   379  00FE0A  69                 	db	105	;'i'
   380  00FE0B  6E                 	db	110	;'n'
   381  00FE0C  67                 	db	103	;'g'
   382  00FE0D  20                 	db	32
   383  00FE0E  50                 	db	80	;'P'
   384  00FE0F  72                 	db	114	;'r'
   385  00FE10  6F                 	db	111	;'o'
   386  00FE11  67                 	db	103	;'g'
   387  00FE12  72                 	db	114	;'r'
   388  00FE13  61                 	db	97	;'a'
   389  00FE14  6D                 	db	109	;'m'
   390  00FE15  6D                 	db	109	;'m'
   391  00FE16  61                 	db	97	;'a'
   392  00FE17  62                 	db	98	;'b'
   393  00FE18  6C                 	db	108	;'l'
   394  00FE19  65                 	db	101	;'e'
   395  00FE1A  20                 	db	32
   396  00FE1B  47                 	db	71	;'G'
   397  00FE1C  61                 	db	97	;'a'
   398  00FE1D  69                 	db	105	;'i'
   399  00FE1E  6E                 	db	110	;'n'
   400  00FE1F  20                 	db	32
   401  00FE20  41                 	db	65	;'A'
   402  00FE21  6D                 	db	109	;'m'
   403  00FE22  70                 	db	112	;'p'
   404  00FE23  6C                 	db	108	;'l'
   405  00FE24  69                 	db	105	;'i'
   406  00FE25  66                 	db	102	;'f'
   407  00FE26  69                 	db	105	;'i'
   408  00FE27  65                 	db	101	;'e'
   409  00FE28  72                 	db	114	;'r'
   410  00FE29  20                 	db	32
   411  00FE2A  0D                 	db	13
   412  00FE2B  0A                 	db	10
   413  00FE2C  00                 	db	0
   414  00FE2D                     STR_5:
   415  00FE2D  50                 	db	80	;'P'
   416  00FE2E  6C                 	db	108	;'l'
   417  00FE2F  65                 	db	101	;'e'
   418  00FE30  61                 	db	97	;'a'
   419  00FE31  73                 	db	115	;'s'
   420  00FE32  65                 	db	101	;'e'
   421  00FE33  20                 	db	32
   422  00FE34  72                 	db	114	;'r'
   423  00FE35  65                 	db	101	;'e'
   424  00FE36  66                 	db	102	;'f'
   425  00FE37  65                 	db	101	;'e'
   426  00FE38  72                 	db	114	;'r'
   427  00FE39  20                 	db	32
   428  00FE3A  74                 	db	116	;'t'
   429  00FE3B  6F                 	db	111	;'o'
   430  00FE3C  20                 	db	32
   431  00FE3D  69                 	db	105	;'i'
   432  00FE3E  6E                 	db	110	;'n'
   433  00FE3F  63                 	db	99	;'c'
   434  00FE40  6C                 	db	108	;'l'
   435  00FE41  75                 	db	117	;'u'
   436  00FE42  64                 	db	100	;'d'
   437  00FE43  65                 	db	101	;'e'
   438  00FE44  64                 	db	100	;'d'
   439  00FE45  20                 	db	32
   440  00FE46  72                 	db	114	;'r'
   441  00FE47  65                 	db	101	;'e'
   442  00FE48  61                 	db	97	;'a'
   443  00FE49  64                 	db	100	;'d'
   444  00FE4A  6D                 	db	109	;'m'
   445  00FE4B  65                 	db	101	;'e'
   446  00FE4C  2E                 	db	46
   447  00FE4D  6D                 	db	109	;'m'
   448  00FE4E  64                 	db	100	;'d'
   449  00FE4F  20                 	db	32
   450  00FE50  66                 	db	102	;'f'
   451  00FE51  6F                 	db	111	;'o'
   452  00FE52  72                 	db	114	;'r'
   453  00FE53  20                 	db	32
   454  00FE54  6D                 	db	109	;'m'
   455  00FE55  6F                 	db	111	;'o'
   456  00FE56  72                 	db	114	;'r'
   457  00FE57  65                 	db	101	;'e'
   458  00FE58  20                 	db	32
   459  00FE59  69                 	db	105	;'i'
   460  00FE5A  6E                 	db	110	;'n'
   461  00FE5B  66                 	db	102	;'f'
   462  00FE5C  6F                 	db	111	;'o'
   463  00FE5D  72                 	db	114	;'r'
   464  00FE5E  6D                 	db	109	;'m'
   465  00FE5F  61                 	db	97	;'a'
   466  00FE60  74                 	db	116	;'t'
   467  00FE61  69                 	db	105	;'i'
   468  00FE62  6F                 	db	111	;'o'
   469  00FE63  6E                 	db	110	;'n'
   470  00FE64  2E                 	db	46
   471  00FE65  20                 	db	32
   472  00FE66  0D                 	db	13
   473  00FE67  0A                 	db	10
   474  00FE68  00                 	db	0
   475  00FE69                     STR_13:
   476  00FE69  4F                 	db	79	;'O'
   477  00FE6A  50                 	db	80	;'P'
   478  00FE6B  41                 	db	65	;'A'
   479  00FE6C  20                 	db	32
   480  00FE6D  43                 	db	67	;'C'
   481  00FE6E  6F                 	db	111	;'o'
   482  00FE6F  6E                 	db	110	;'n'
   483  00FE70  66                 	db	102	;'f'
   484  00FE71  69                 	db	105	;'i'
   485  00FE72  67                 	db	103	;'g'
   486  00FE73  75                 	db	117	;'u'
   487  00FE74  72                 	db	114	;'r'
   488  00FE75  61                 	db	97	;'a'
   489  00FE76  74                 	db	116	;'t'
   490  00FE77  69                 	db	105	;'i'
   491  00FE78  6F                 	db	111	;'o'
   492  00FE79  6E                 	db	110	;'n'
   493  00FE7A  3A                 	db	58	;':'
   494  00FE7B  20                 	db	32
   495  00FE7C  49                 	db	73	;'I'
   496  00FE7D  6E                 	db	110	;'n'
   497  00FE7E  76                 	db	118	;'v'
   498  00FE7F  65                 	db	101	;'e'
   499  00FE80  72                 	db	114	;'r'
   500  00FE81  74                 	db	116	;'t'
   501  00FE82  69                 	db	105	;'i'
   502  00FE83  6E                 	db	110	;'n'
   503  00FE84  67                 	db	103	;'g'
   504  00FE85  20                 	db	32
   505  00FE86  50                 	db	80	;'P'
   506  00FE87  72                 	db	114	;'r'
   507  00FE88  6F                 	db	111	;'o'
   508  00FE89  67                 	db	103	;'g'
   509  00FE8A  72                 	db	114	;'r'
   510  00FE8B  61                 	db	97	;'a'
   511  00FE8C  6D                 	db	109	;'m'
   512  00FE8D  6D                 	db	109	;'m'
   513  00FE8E  61                 	db	97	;'a'
   514  00FE8F  62                 	db	98	;'b'
   515  00FE90  6C                 	db	108	;'l'
   516  00FE91  65                 	db	101	;'e'
   517  00FE92  20                 	db	32
   518  00FE93  47                 	db	71	;'G'
   519  00FE94  61                 	db	97	;'a'
   520  00FE95  69                 	db	105	;'i'
   521  00FE96  6E                 	db	110	;'n'
   522  00FE97  20                 	db	32
   523  00FE98  41                 	db	65	;'A'
   524  00FE99  6D                 	db	109	;'m'
   525  00FE9A  70                 	db	112	;'p'
   526  00FE9B  6C                 	db	108	;'l'
   527  00FE9C  69                 	db	105	;'i'
   528  00FE9D  66                 	db	102	;'f'
   529  00FE9E  69                 	db	105	;'i'
   530  00FE9F  65                 	db	101	;'e'
   531  00FEA0  72                 	db	114	;'r'
   532  00FEA1  20                 	db	32
   533  00FEA2  0D                 	db	13
   534  00FEA3  0A                 	db	10
   535  00FEA4  00                 	db	0
   536  00FEA5                     STR_7:
   537  00FEA5  4F                 	db	79	;'O'
   538  00FEA6  50                 	db	80	;'P'
   539  00FEA7  41                 	db	65	;'A'
   540  00FEA8  20                 	db	32
   541  00FEA9  43                 	db	67	;'C'
   542  00FEAA  6F                 	db	111	;'o'
   543  00FEAB  6E                 	db	110	;'n'
   544  00FEAC  66                 	db	102	;'f'
   545  00FEAD  69                 	db	105	;'i'
   546  00FEAE  67                 	db	103	;'g'
   547  00FEAF  75                 	db	117	;'u'
   548  00FEB0  72                 	db	114	;'r'
   549  00FEB1  61                 	db	97	;'a'
   550  00FEB2  74                 	db	116	;'t'
   551  00FEB3  69                 	db	105	;'i'
   552  00FEB4  6F                 	db	111	;'o'
   553  00FEB5  6E                 	db	110	;'n'
   554  00FEB6  3A                 	db	58	;':'
   555  00FEB7  20                 	db	32
   556  00FEB8  44                 	db	68	;'D'
   557  00FEB9  69                 	db	105	;'i'
   558  00FEBA  72                 	db	114	;'r'
   559  00FEBB  65                 	db	101	;'e'
   560  00FEBC  63                 	db	99	;'c'
   561  00FEBD  74                 	db	116	;'t'
   562  00FEBE  20                 	db	32
   563  00FEBF  43                 	db	67	;'C'
   564  00FEC0  6F                 	db	111	;'o'
   565  00FEC1  6E                 	db	110	;'n'
   566  00FEC2  6E                 	db	110	;'n'
   567  00FEC3  65                 	db	101	;'e'
   568  00FEC4  63                 	db	99	;'c'
   569  00FEC5  74                 	db	116	;'t'
   570  00FEC6  69                 	db	105	;'i'
   571  00FEC7  6F                 	db	111	;'o'
   572  00FEC8  6E                 	db	110	;'n'
   573  00FEC9  20                 	db	32
   574  00FECA  74                 	db	116	;'t'
   575  00FECB  6F                 	db	111	;'o'
   576  00FECC  20                 	db	32
   577  00FECD  45                 	db	69	;'E'
   578  00FECE  78                 	db	120	;'x'
   579  00FECF  74                 	db	116	;'t'
   580  00FED0  65                 	db	101	;'e'
   581  00FED1  72                 	db	114	;'r'
   582  00FED2  6E                 	db	110	;'n'
   583  00FED3  61                 	db	97	;'a'
   584  00FED4  6C                 	db	108	;'l'
   585  00FED5  20                 	db	32
   586  00FED6  50                 	db	80	;'P'
   587  00FED7  69                 	db	105	;'i'
   588  00FED8  6E                 	db	110	;'n'
   589  00FED9  73                 	db	115	;'s'
   590  00FEDA  20                 	db	32
   591  00FEDB  0D                 	db	13
   592  00FEDC  0A                 	db	10
   593  00FEDD  00                 	db	0
   594  00FEDE                     STR_3:
   595  00FEDE  53                 	db	83	;'S'
   596  00FEDF  65                 	db	101	;'e'
   597  00FEE0  6C                 	db	108	;'l'
   598  00FEE1  65                 	db	101	;'e'
   599  00FEE2  63                 	db	99	;'c'
   600  00FEE3  74                 	db	116	;'t'
   601  00FEE4  20                 	db	32
   602  00FEE5  4F                 	db	79	;'O'
   603  00FEE6  50                 	db	80	;'P'
   604  00FEE7  41                 	db	65	;'A'
   605  00FEE8  20                 	db	32
   606  00FEE9  6D                 	db	109	;'m'
   607  00FEEA  6F                 	db	111	;'o'
   608  00FEEB  64                 	db	100	;'d'
   609  00FEEC  65                 	db	101	;'e'
   610  00FEED  20                 	db	32
   611  00FEEE  6F                 	db	111	;'o'
   612  00FEEF  66                 	db	102	;'f'
   613  00FEF0  20                 	db	32
   614  00FEF1  6F                 	db	111	;'o'
   615  00FEF2  70                 	db	112	;'p'
   616  00FEF3  65                 	db	101	;'e'
   617  00FEF4  72                 	db	114	;'r'
   618  00FEF5  61                 	db	97	;'a'
   619  00FEF6  74                 	db	116	;'t'
   620  00FEF7  69                 	db	105	;'i'
   621  00FEF8  6F                 	db	111	;'o'
   622  00FEF9  6E                 	db	110	;'n'
   623  00FEFA  20                 	db	32
   624  00FEFB  75                 	db	117	;'u'
   625  00FEFC  73                 	db	115	;'s'
   626  00FEFD  69                 	db	105	;'i'
   627  00FEFE  6E                 	db	110	;'n'
   628  00FEFF  67                 	db	103	;'g'
   629  00FF00  20                 	db	32
   630  00FF01  70                 	db	112	;'p'
   631  00FF02  69                 	db	105	;'i'
   632  00FF03  6E                 	db	110	;'n'
   633  00FF04  73                 	db	115	;'s'
   634  00FF05  20                 	db	32
   635  00FF06  52                 	db	82	;'R'
   636  00FF07  41                 	db	65	;'A'
   637  00FF08  34                 	db	52	;'4'
   638  00FF09  20                 	db	32
   639  00FF0A  61                 	db	97	;'a'
   640  00FF0B  6E                 	db	110	;'n'
   641  00FF0C  64                 	db	100	;'d'
   642  00FF0D  20                 	db	32
   643  00FF0E  52                 	db	82	;'R'
   644  00FF0F  41                 	db	65	;'A'
   645  00FF10  35                 	db	53	;'5'
   646  00FF11  2E                 	db	46
   647  00FF12  0D                 	db	13
   648  00FF13  0A                 	db	10
   649  00FF14  00                 	db	0
   650  00FF15                     STR_8:
   651  00FF15  4F                 	db	79	;'O'
   652  00FF16  50                 	db	80	;'P'
   653  00FF17  41                 	db	65	;'A'
   654  00FF18  31                 	db	49	;'1'
   655  00FF19  4F                 	db	79	;'O'
   656  00FF1A  55                 	db	85	;'U'
   657  00FF1B  54                 	db	84	;'T'
   658  00FF1C  20                 	db	32
   659  00FF1D  3D                 	db	61	;'='
   660  00FF1E  20                 	db	32
   661  00FF1F  52                 	db	82	;'R'
   662  00FF20  43                 	db	67	;'C'
   663  00FF21  32                 	db	50	;'2'
   664  00FF22  20                 	db	32
   665  00FF23  7C                 	db	124
   666  00FF24  20                 	db	32
   667  00FF25  4F                 	db	79	;'O'
   668  00FF26  50                 	db	80	;'P'
   669  00FF27  41                 	db	65	;'A'
   670  00FF28  31                 	db	49	;'1'
   671  00FF29  49                 	db	73	;'I'
   672  00FF2A  4E                 	db	78	;'N'
   673  00FF2B  2B                 	db	43
   674  00FF2C  20                 	db	32
   675  00FF2D  3D                 	db	61	;'='
   676  00FF2E  20                 	db	32
   677  00FF2F  52                 	db	82	;'R'
   678  00FF30  43                 	db	67	;'C'
   679  00FF31  33                 	db	51	;'3'
   680  00FF32  20                 	db	32
   681  00FF33  7C                 	db	124
   682  00FF34  20                 	db	32
   683  00FF35  4F                 	db	79	;'O'
   684  00FF36  50                 	db	80	;'P'
   685  00FF37  41                 	db	65	;'A'
   686  00FF38  31                 	db	49	;'1'
   687  00FF39  49                 	db	73	;'I'
   688  00FF3A  4E                 	db	78	;'N'
   689  00FF3B  2D                 	db	45
   690  00FF3C  20                 	db	32
   691  00FF3D  3D                 	db	61	;'='
   692  00FF3E  20                 	db	32
   693  00FF3F  52                 	db	82	;'R'
   694  00FF40  41                 	db	65	;'A'
   695  00FF41  32                 	db	50	;'2'
   696  00FF42  20                 	db	32
   697  00FF43  0D                 	db	13
   698  00FF44  0A                 	db	10
   699  00FF45  0D                 	db	13
   700  00FF46  0A                 	db	10
   701  00FF47  00                 	db	0
   702  00FF48                     STR_9:
   703  00FF48  4F                 	db	79	;'O'
   704  00FF49  50                 	db	80	;'P'
   705  00FF4A  41                 	db	65	;'A'
   706  00FF4B  20                 	db	32
   707  00FF4C  43                 	db	67	;'C'
   708  00FF4D  6F                 	db	111	;'o'
   709  00FF4E  6E                 	db	110	;'n'
   710  00FF4F  66                 	db	102	;'f'
   711  00FF50  69                 	db	105	;'i'
   712  00FF51  67                 	db	103	;'g'
   713  00FF52  75                 	db	117	;'u'
   714  00FF53  72                 	db	114	;'r'
   715  00FF54  61                 	db	97	;'a'
   716  00FF55  74                 	db	116	;'t'
   717  00FF56  69                 	db	105	;'i'
   718  00FF57  6F                 	db	111	;'o'
   719  00FF58  6E                 	db	110	;'n'
   720  00FF59  3A                 	db	58	;':'
   721  00FF5A  20                 	db	32
   722  00FF5B  55                 	db	85	;'U'
   723  00FF5C  6E                 	db	110	;'n'
   724  00FF5D  69                 	db	105	;'i'
   725  00FF5E  74                 	db	116	;'t'
   726  00FF5F  79                 	db	121	;'y'
   727  00FF60  20                 	db	32
   728  00FF61  47                 	db	71	;'G'
   729  00FF62  61                 	db	97	;'a'
   730  00FF63  69                 	db	105	;'i'
   731  00FF64  6E                 	db	110	;'n'
   732  00FF65  20                 	db	32
   733  00FF66  42                 	db	66	;'B'
   734  00FF67  75                 	db	117	;'u'
   735  00FF68  66                 	db	102	;'f'
   736  00FF69  66                 	db	102	;'f'
   737  00FF6A  65                 	db	101	;'e'
   738  00FF6B  72                 	db	114	;'r'
   739  00FF6C  20                 	db	32
   740  00FF6D  0D                 	db	13
   741  00FF6E  0A                 	db	10
   742  00FF6F  00                 	db	0
   743  00FF70                     STR_2:
   744  00FF70  50                 	db	80	;'P'
   745  00FF71  49                 	db	73	;'I'
   746  00FF72  43                 	db	67	;'C'
   747  00FF73  31                 	db	49	;'1'
   748  00FF74  38                 	db	56	;'8'
   749  00FF75  46                 	db	70	;'F'
   750  00FF76  31                 	db	49	;'1'
   751  00FF77  36                 	db	54	;'6'
   752  00FF78  51                 	db	81	;'Q'
   753  00FF79  34                 	db	52	;'4'
   754  00FF7A  31                 	db	49	;'1'
   755  00FF7B  20                 	db	32
   756  00FF7C  43                 	db	67	;'C'
   757  00FF7D  75                 	db	117	;'u'
   758  00FF7E  72                 	db	114	;'r'
   759  00FF7F  69                 	db	105	;'i'
   760  00FF80  6F                 	db	111	;'o'
   761  00FF81  73                 	db	115	;'s'
   762  00FF82  69                 	db	105	;'i'
   763  00FF83  74                 	db	116	;'t'
   764  00FF84  79                 	db	121	;'y'
   765  00FF85  20                 	db	32
   766  00FF86  4E                 	db	78	;'N'
   767  00FF87  61                 	db	97	;'a'
   768  00FF88  6E                 	db	110	;'n'
   769  00FF89  6F                 	db	111	;'o'
   770  00FF8A  20                 	db	32
   771  00FF8B  4F                 	db	79	;'O'
   772  00FF8C  50                 	db	80	;'P'
   773  00FF8D  41                 	db	65	;'A'
   774  00FF8E  20                 	db	32
   775  00FF8F  44                 	db	68	;'D'
   776  00FF90  65                 	db	101	;'e'
   777  00FF91  6D                 	db	109	;'m'
   778  00FF92  6F                 	db	111	;'o'
   779  00FF93  20                 	db	32
   780  00FF94  0D                 	db	13
   781  00FF95  0A                 	db	10
   782  00FF96  00                 	db	0
   783  00FF97                     STR_14:
   784  00FF97  4F                 	db	79	;'O'
   785  00FF98  50                 	db	80	;'P'
   786  00FF99  41                 	db	65	;'A'
   787  00FF9A  31                 	db	49	;'1'
   788  00FF9B  4F                 	db	79	;'O'
   789  00FF9C  55                 	db	85	;'U'
   790  00FF9D  54                 	db	84	;'T'
   791  00FF9E  20                 	db	32
   792  00FF9F  3D                 	db	61	;'='
   793  00FFA0  20                 	db	32
   794  00FFA1  52                 	db	82	;'R'
   795  00FFA2  43                 	db	67	;'C'
   796  00FFA3  32                 	db	50	;'2'
   797  00FFA4  20                 	db	32
   798  00FFA5  7C                 	db	124
   799  00FFA6  20                 	db	32
   800  00FFA7  4F                 	db	79	;'O'
   801  00FFA8  50                 	db	80	;'P'
   802  00FFA9  41                 	db	65	;'A'
   803  00FFAA  31                 	db	49	;'1'
   804  00FFAB  49                 	db	73	;'I'
   805  00FFAC  4E                 	db	78	;'N'
   806  00FFAD  2D                 	db	45
   807  00FFAE  20                 	db	32
   808  00FFAF  3D                 	db	61	;'='
   809  00FFB0  20                 	db	32
   810  00FFB1  52                 	db	82	;'R'
   811  00FFB2  41                 	db	65	;'A'
   812  00FFB3  32                 	db	50	;'2'
   813  00FFB4  20                 	db	32
   814  00FFB5  0D                 	db	13
   815  00FFB6  0A                 	db	10
   816  00FFB7  0D                 	db	13
   817  00FFB8  0A                 	db	10
   818  00FFB9  00                 	db	0
   819  00FFBA                     STR_10:
   820  00FFBA  4F                 	db	79	;'O'
   821  00FFBB  50                 	db	80	;'P'
   822  00FFBC  41                 	db	65	;'A'
   823  00FFBD  31                 	db	49	;'1'
   824  00FFBE  4F                 	db	79	;'O'
   825  00FFBF  55                 	db	85	;'U'
   826  00FFC0  54                 	db	84	;'T'
   827  00FFC1  20                 	db	32
   828  00FFC2  3D                 	db	61	;'='
   829  00FFC3  20                 	db	32
   830  00FFC4  52                 	db	82	;'R'
   831  00FFC5  43                 	db	67	;'C'
   832  00FFC6  32                 	db	50	;'2'
   833  00FFC7  20                 	db	32
   834  00FFC8  7C                 	db	124
   835  00FFC9  20                 	db	32
   836  00FFCA  4F                 	db	79	;'O'
   837  00FFCB  50                 	db	80	;'P'
   838  00FFCC  41                 	db	65	;'A'
   839  00FFCD  31                 	db	49	;'1'
   840  00FFCE  49                 	db	73	;'I'
   841  00FFCF  4E                 	db	78	;'N'
   842  00FFD0  2B                 	db	43
   843  00FFD1  20                 	db	32
   844  00FFD2  3D                 	db	61	;'='
   845  00FFD3  20                 	db	32
   846  00FFD4  52                 	db	82	;'R'
   847  00FFD5  43                 	db	67	;'C'
   848  00FFD6  33                 	db	51	;'3'
   849  00FFD7  20                 	db	32
   850  00FFD8  0D                 	db	13
   851  00FFD9  0A                 	db	10
   852  00FFDA  0D                 	db	13
   853  00FFDB  0A                 	db	10
   854  00FFDC  00                 	db	0
   855  00FFDD                     STR_1:
   856  00FFDD  4F                 	db	79	;'O'
   857  00FFDE  50                 	db	80	;'P'
   858  00FFDF  41                 	db	65	;'A'
   859  00FFE0  20                 	db	32
   860  00FFE1  43                 	db	67	;'C'
   861  00FFE2  6F                 	db	111	;'o'
   862  00FFE3  6E                 	db	110	;'n'
   863  00FFE4  66                 	db	102	;'f'
   864  00FFE5  69                 	db	105	;'i'
   865  00FFE6  67                 	db	103	;'g'
   866  00FFE7  75                 	db	117	;'u'
   867  00FFE8  72                 	db	114	;'r'
   868  00FFE9  61                 	db	97	;'a'
   869  00FFEA  74                 	db	116	;'t'
   870  00FFEB  69                 	db	105	;'i'
   871  00FFEC  6F                 	db	111	;'o'
   872  00FFED  6E                 	db	110	;'n'
   873  00FFEE  20                 	db	32
   874  00FFEF  49                 	db	73	;'I'
   875  00FFF0  6E                 	db	110	;'n'
   876  00FFF1  70                 	db	112	;'p'
   877  00FFF2  75                 	db	117	;'u'
   878  00FFF3  74                 	db	116	;'t'
   879  00FFF4  20                 	db	32
   880  00FFF5  45                 	db	69	;'E'
   881  00FFF6  72                 	db	114	;'r'
   882  00FFF7  72                 	db	114	;'r'
   883  00FFF8  6F                 	db	111	;'o'
   884  00FFF9  72                 	db	114	;'r'
   885  00FFFA  21                 	db	33
   886  00FFFB  20                 	db	32
   887  00FFFC  0D                 	db	13
   888  00FFFD  0A                 	db	10
   889  00FFFE  00                 	db	0
   890  00FFFF  00                 	db	0	; dummy byte at the end
   891  0000                     
   892                           ; #config settings
   893                           
   894                           	psect	cinit
   895  0006E6                     __pcinit:
   896                           	callstack 0
   897  0006E6                     start_initialization:
   898                           	callstack 0
   899  0006E6                     __initialization:
   900                           	callstack 0
   901                           
   902                           ; Clear objects allocated to COMRAM (44 bytes)
   903  0006E6  EE01  F101         	lfsr	0,__pbssCOMRAM
   904  0006EA  0E2C               	movlw	44
   905  0006EC                     clear_0:
   906  0006EC  6AEE               	clrf	postinc0,c
   907  0006EE  06E8               	decf	wreg,f,c
   908  0006F0  E1FD               	bnz	clear_0
   909                           
   910                           ;
   911                           ; Setup IVTBASE
   912                           ;
   913  0006F2  0104               	movlb	4
   914  0006F4  0E08               	movlw	(ivt0x8_base shr 0)& (0+255)
   915  0006F6  6F5D               	movwf	93,b
   916  0006F8  0E00               	movlw	(ivt0x8_base shr (0+8))& (0+255)
   917  0006FA  6F5E               	movwf	94,b
   918  0006FC  0E00               	movlw	(ivt0x8_base shr (0+16))& (0+255)
   919  0006FE  6F5F               	movwf	95,b
   920  000700                     end_of_initialization:
   921                           	callstack 0
   922  000700                     __end_of__initialization:
   923                           	callstack 0
   924  000700  0100               	movlb	0
   925  000702  EF0F  F000         	goto	_main	;jump to C main() function
   926                           
   927                           	psect	bssCOMRAM
   928  000501                     __pbssCOMRAM:
   929                           	callstack 0
   930  000501                     	ds	32
   931  000521                     _nout:
   932                           	callstack 0
   933  000521                     	ds	2
   934  000523                     _width:
   935                           	callstack 0
   936  000523                     	ds	2
   937  000525                     _prec:
   938                           	callstack 0
   939  000525                     	ds	2
   940  000527                     _flags:
   941                           	callstack 0
   942  000527                     	ds	2
   943  000529                     _init_flag:
   944                           	callstack 0
   945  000529                     	ds	2
   946  00052B                     _uart1RxLastError:
   947                           	callstack 0
   948  00052B                     	ds	1
   949  00052C                     _sw0_flag:
   950                           	callstack 0
   951  00052C                     	ds	1
   952                           
   953                           	psect	cstackCOMRAM
   954  00052D                     __pcstackCOMRAM:
   955                           	callstack 0
   956  00052D                     ??_GetOpampConfig:
   957  00052D                     ??_BlinkLED:
   958  00052D                     UART1_Write@txData:
   959                           	callstack 0
   960  00052D                     UART1_SetFramingErrorHandler@interruptHandler:
   961                           	callstack 0
   962  00052D                     UART1_SetOverrunErrorHandler@interruptHandler:
   963                           	callstack 0
   964  00052D                     UART1_SetErrorHandler@interruptHandler:
   965                           	callstack 0
   966                           
   967                           ; 2 bytes @ 0x0
   968  00052D                     	ds	1
   969  00052E                     putch@txData:
   970                           	callstack 0
   971                           
   972                           ; 1 bytes @ 0x1
   973  00052E                     	ds	1
   974  00052F                     BlinkLED@cnt:
   975                           	callstack 0
   976  00052F                     fputc@c:
   977                           	callstack 0
   978                           
   979                           ; 2 bytes @ 0x2
   980  00052F                     	ds	1
   981  000530                     BlinkLED@i:
   982                           	callstack 0
   983                           
   984                           ; 2 bytes @ 0x3
   985  000530                     	ds	1
   986  000531                     fputc@fp:
   987                           	callstack 0
   988                           
   989                           ; 2 bytes @ 0x4
   990  000531                     	ds	2
   991  000533                     ??_fputc:
   992                           
   993                           ; 1 bytes @ 0x6
   994  000533                     	ds	5
   995  000538                     ?_vfpfcnvrt:
   996                           	callstack 0
   997  000538                     vfpfcnvrt@fp:
   998                           	callstack 0
   999                           
  1000                           ; 2 bytes @ 0xB
  1001  000538                     	ds	2
  1002  00053A                     vfpfcnvrt@fmt:
  1003                           	callstack 0
  1004                           
  1005                           ; 2 bytes @ 0xD
  1006  00053A                     	ds	2
  1007  00053C                     vfpfcnvrt@ap:
  1008                           	callstack 0
  1009                           
  1010                           ; 2 bytes @ 0xF
  1011  00053C                     	ds	2
  1012  00053E                     ?_vfprintf:
  1013                           	callstack 0
  1014  00053E                     vfprintf@fp:
  1015                           	callstack 0
  1016                           
  1017                           ; 2 bytes @ 0x11
  1018  00053E                     	ds	2
  1019  000540                     vfprintf@fmt:
  1020                           	callstack 0
  1021                           
  1022                           ; 2 bytes @ 0x13
  1023  000540                     	ds	2
  1024  000542                     vfprintf@ap:
  1025                           	callstack 0
  1026                           
  1027                           ; 2 bytes @ 0x15
  1028  000542                     	ds	2
  1029  000544                     vfprintf@cfmt:
  1030                           	callstack 0
  1031                           
  1032                           ; 2 bytes @ 0x17
  1033  000544                     	ds	2
  1034  000546                     ?_printf:
  1035                           	callstack 0
  1036  000546                     printf@fmt:
  1037                           	callstack 0
  1038                           
  1039                           ; 2 bytes @ 0x19
  1040  000546                     	ds	2
  1041  000548                     
  1042                           ; 1 bytes @ 0x1B
  1043  000548                     	ds	2
  1044  00054A                     printf@ap:
  1045                           	callstack 0
  1046                           
  1047                           ; 2 bytes @ 0x1D
  1048  00054A                     	ds	2
  1049  00054C                     ??_main:
  1050                           
  1051                           ; 1 bytes @ 0x1F
  1052  00054C                     	ds	2
  1053                           
  1054 ;;
  1055 ;;Main: autosize = 0, tempsize = 2, incstack = 0, save=0
  1056 ;;
  1057 ;; *************** function _main *****************
  1058 ;; Defined at:
  1059 ;;		line 51 in file "main.c"
  1060 ;; Parameters:    Size  Location     Type
  1061 ;;		None
  1062 ;; Auto vars:     Size  Location     Type
  1063 ;;		None
  1064 ;; Return value:  Size  Location     Type
  1065 ;;                  1    wreg      void 
  1066 ;; Registers used:
  1067 ;;		wreg, fsr1l, fsr1h, fsr2l, fsr2h, status,2, status,0, tblptrl, tblptrh, tblptru, cstack
  1068 ;; Tracked objects:
  1069 ;;		On entry : 0/0
  1070 ;;		On exit  : 0/0
  1071 ;;		Unchanged: 0/0
  1072 ;; Data sizes:     COMRAM   BANK5   BANK6   BANK7   BANK8   BANK9  BANK10  BANK11  BANK12  BANK13  BANK14  BANK15  BANK1
      +6  BANK17  BANK18  BANK19  BANK20
  1073 ;;      Params:         0       0       0       0       0       0       0       0       0       0       0       0       
      +0       0       0       0       0
  1074 ;;      Locals:         0       0       0       0       0       0       0       0       0       0       0       0       
      +0       0       0       0       0
  1075 ;;      Temps:          2       0       0       0       0       0       0       0       0       0       0       0       
      +0       0       0       0       0
  1076 ;;      Totals:         2       0       0       0       0       0       0       0       0       0       0       0       
      +0       0       0       0       0
  1077 ;;Total ram usage:        2 bytes
  1078 ;; Hardware stack levels required when called:    9
  1079 ;; This function calls:
  1080 ;;		_BlinkLED
  1081 ;;		_GetOpampConfig
  1082 ;;		_IntroSplashMessage
  1083 ;;		_OPA_External
  1084 ;;		_OPA_Inverting
  1085 ;;		_OPA_NonInverting
  1086 ;;		_OPA_UnityGain
  1087 ;;		_SYSTEM_Initialize
  1088 ;;		_printf
  1089 ;; This function is called by:
  1090 ;;		Startup code after reset
  1091 ;; This function uses a non-reentrant model
  1092 ;;
  1093                           
  1094                           	psect	text0
  1095  00001E                     __ptext0:
  1096                           	callstack 0
  1097  00001E                     _main:
  1098                           	callstack 119
  1099  00001E                     
  1100                           ;main.c: 53:     SYSTEM_Initialize();
  1101  00001E  EC51  F003         	call	_SYSTEM_Initialize	;wreg free
  1102  000022                     
  1103                           ;main.c: 60:     (INTCON0bits.GIE = 1);
  1104  000022  8ED6               	bsf	214,7,c	;volatile
  1105  000024                     
  1106                           ;main.c: 65:     IntroSplashMessage();
  1107  000024  ECA7  F002         	call	_IntroSplashMessage	;wreg free
  1108  000028                     
  1109                           ;main.c: 66:     GetOpampConfig();
  1110  000028  EC82  F002         	call	_GetOpampConfig	;wreg free
  1111  00002C  EFBA  F000         	goto	l1880
  1112  000030                     l1820:
  1113                           
  1114                           ;main.c: 72:                 if (init_flag == 0) {
  1115  000030  5029               	movf	_init_flag^(0+1280),w,c
  1116  000032  102A               	iorwf	(_init_flag+1)^(0+1280),w,c
  1117  000034  A4D8               	btfss	status,2,c
  1118  000036  EF1F  F000         	goto	u421
  1119  00003A  EF21  F000         	goto	u420
  1120  00003E                     u421:
  1121  00003E  EF2C  F000         	goto	l1828
  1122  000042                     u420:
  1123  000042                     
  1124                           ;main.c: 73:                     BlinkLED(opa_config);
  1125  000042  504E               	movf	_opa_config^(0+1280),w,c
  1126  000044  ECAB  F001         	call	_BlinkLED
  1127  000048                     
  1128                           ;main.c: 74:                     OPA_External();
  1129  000048  EC27  F003         	call	_OPA_External	;wreg free
  1130  00004C                     
  1131                           ;main.c: 75:                     init_flag = 1;
  1132  00004C  0E00               	movlw	0
  1133  00004E  6E2A               	movwf	(_init_flag+1)^(0+1280),c
  1134  000050  0E01               	movlw	1
  1135  000052  6E29               	movwf	_init_flag^(0+1280),c
  1136                           
  1137                           ;main.c: 76:                 } else if (sw0_flag == 1) {
  1138  000054  EF3C  F000         	goto	l325
  1139  000058                     l1828:
  1140  000058  042C               	decf	_sw0_flag^(0+1280),w,c
  1141  00005A  A4D8               	btfss	status,2,c
  1142  00005C  EF32  F000         	goto	u431
  1143  000060  EF34  F000         	goto	u430
  1144  000064                     u431:
  1145  000064  EF3C  F000         	goto	l325
  1146  000068                     u430:
  1147  000068                     
  1148                           ;main.c: 77:                     sw0_flag = 0;
  1149  000068  0E00               	movlw	0
  1150  00006A  6E2C               	movwf	_sw0_flag^(0+1280),c
  1151                           
  1152                           ;main.c: 78:                     init_flag = 0;
  1153  00006C  0E00               	movlw	0
  1154  00006E  6E2A               	movwf	(_init_flag+1)^(0+1280),c
  1155  000070  0E00               	movlw	0
  1156  000072  6E29               	movwf	_init_flag^(0+1280),c
  1157  000074                     
  1158                           ;main.c: 79:                     GetOpampConfig();
  1159  000074  EC82  F002         	call	_GetOpampConfig	;wreg free
  1160  000078                     l325:
  1161  000078  0003               	sleep		;# 
  1162                           
  1163                           ;main.c: 82:                 break;
  1164  00007A  EFBA  F000         	goto	l1880
  1165  00007E                     l1834:
  1166                           
  1167                           ;main.c: 85:                 if (init_flag == 0) {
  1168  00007E  5029               	movf	_init_flag^(0+1280),w,c
  1169  000080  102A               	iorwf	(_init_flag+1)^(0+1280),w,c
  1170  000082  A4D8               	btfss	status,2,c
  1171  000084  EF46  F000         	goto	u441
  1172  000088  EF48  F000         	goto	u440
  1173  00008C                     u441:
  1174  00008C  EF53  F000         	goto	l1842
  1175  000090                     u440:
  1176  000090                     
  1177                           ;main.c: 86:                     BlinkLED(opa_config);
  1178  000090  504E               	movf	_opa_config^(0+1280),w,c
  1179  000092  ECAB  F001         	call	_BlinkLED
  1180  000096                     
  1181                           ;main.c: 87:                     OPA_UnityGain();
  1182  000096  ECE2  F002         	call	_OPA_UnityGain	;wreg free
  1183  00009A                     
  1184                           ;main.c: 88:                     init_flag = 1;
  1185  00009A  0E00               	movlw	0
  1186  00009C  6E2A               	movwf	(_init_flag+1)^(0+1280),c
  1187  00009E  0E01               	movlw	1
  1188  0000A0  6E29               	movwf	_init_flag^(0+1280),c
  1189                           
  1190                           ;main.c: 89:                 } else if (sw0_flag == 1) {
  1191  0000A2  EF63  F000         	goto	l330
  1192  0000A6                     l1842:
  1193  0000A6  042C               	decf	_sw0_flag^(0+1280),w,c
  1194  0000A8  A4D8               	btfss	status,2,c
  1195  0000AA  EF59  F000         	goto	u451
  1196  0000AE  EF5B  F000         	goto	u450
  1197  0000B2                     u451:
  1198  0000B2  EF63  F000         	goto	l330
  1199  0000B6                     u450:
  1200  0000B6                     
  1201                           ;main.c: 90:                     sw0_flag = 0;
  1202  0000B6  0E00               	movlw	0
  1203  0000B8  6E2C               	movwf	_sw0_flag^(0+1280),c
  1204                           
  1205                           ;main.c: 91:                     init_flag = 0;
  1206  0000BA  0E00               	movlw	0
  1207  0000BC  6E2A               	movwf	(_init_flag+1)^(0+1280),c
  1208  0000BE  0E00               	movlw	0
  1209  0000C0  6E29               	movwf	_init_flag^(0+1280),c
  1210  0000C2                     
  1211                           ;main.c: 92:                     GetOpampConfig();
  1212  0000C2  EC82  F002         	call	_GetOpampConfig	;wreg free
  1213  0000C6                     l330:
  1214  0000C6  0003               	sleep		;# 
  1215                           
  1216                           ;main.c: 95:                 break;
  1217  0000C8  EFBA  F000         	goto	l1880
  1218  0000CC                     l1848:
  1219                           
  1220                           ;main.c: 98:                 if (init_flag == 0) {
  1221  0000CC  5029               	movf	_init_flag^(0+1280),w,c
  1222  0000CE  102A               	iorwf	(_init_flag+1)^(0+1280),w,c
  1223  0000D0  A4D8               	btfss	status,2,c
  1224  0000D2  EF6D  F000         	goto	u461
  1225  0000D6  EF6F  F000         	goto	u460
  1226  0000DA                     u461:
  1227  0000DA  EF7A  F000         	goto	l1856
  1228  0000DE                     u460:
  1229  0000DE                     
  1230                           ;main.c: 99:                     BlinkLED(opa_config);
  1231  0000DE  504E               	movf	_opa_config^(0+1280),w,c
  1232  0000E0  ECAB  F001         	call	_BlinkLED
  1233  0000E4                     
  1234                           ;main.c: 100:                     OPA_NonInverting();
  1235  0000E4  ECF9  F002         	call	_OPA_NonInverting	;wreg free
  1236  0000E8                     
  1237                           ;main.c: 101:                     init_flag = 1;
  1238  0000E8  0E00               	movlw	0
  1239  0000EA  6E2A               	movwf	(_init_flag+1)^(0+1280),c
  1240  0000EC  0E01               	movlw	1
  1241  0000EE  6E29               	movwf	_init_flag^(0+1280),c
  1242                           
  1243                           ;main.c: 102:                 } else if (sw0_flag == 1) {
  1244  0000F0  EF8A  F000         	goto	l334
  1245  0000F4                     l1856:
  1246  0000F4  042C               	decf	_sw0_flag^(0+1280),w,c
  1247  0000F6  A4D8               	btfss	status,2,c
  1248  0000F8  EF80  F000         	goto	u471
  1249  0000FC  EF82  F000         	goto	u470
  1250  000100                     u471:
  1251  000100  EF8A  F000         	goto	l334
  1252  000104                     u470:
  1253  000104                     
  1254                           ;main.c: 103:                     sw0_flag = 0;
  1255  000104  0E00               	movlw	0
  1256  000106  6E2C               	movwf	_sw0_flag^(0+1280),c
  1257                           
  1258                           ;main.c: 104:                     init_flag = 0;
  1259  000108  0E00               	movlw	0
  1260  00010A  6E2A               	movwf	(_init_flag+1)^(0+1280),c
  1261  00010C  0E00               	movlw	0
  1262  00010E  6E29               	movwf	_init_flag^(0+1280),c
  1263  000110                     
  1264                           ;main.c: 105:                     GetOpampConfig();
  1265  000110  EC82  F002         	call	_GetOpampConfig	;wreg free
  1266  000114                     l334:
  1267  000114  0003               	sleep		;# 
  1268                           
  1269                           ;main.c: 108:                 break;
  1270  000116  EFBA  F000         	goto	l1880
  1271  00011A                     l1862:
  1272                           
  1273                           ;main.c: 111:                 if (init_flag == 0) {
  1274  00011A  5029               	movf	_init_flag^(0+1280),w,c
  1275  00011C  102A               	iorwf	(_init_flag+1)^(0+1280),w,c
  1276  00011E  A4D8               	btfss	status,2,c
  1277  000120  EF94  F000         	goto	u481
  1278  000124  EF96  F000         	goto	u480
  1279  000128                     u481:
  1280  000128  EFA1  F000         	goto	l1870
  1281  00012C                     u480:
  1282  00012C                     
  1283                           ;main.c: 112:                     BlinkLED(opa_config);
  1284  00012C  504E               	movf	_opa_config^(0+1280),w,c
  1285  00012E  ECAB  F001         	call	_BlinkLED
  1286  000132                     
  1287                           ;main.c: 113:                     OPA_Inverting();
  1288  000132  EC10  F003         	call	_OPA_Inverting	;wreg free
  1289  000136                     
  1290                           ;main.c: 114:                     init_flag = 1;
  1291  000136  0E00               	movlw	0
  1292  000138  6E2A               	movwf	(_init_flag+1)^(0+1280),c
  1293  00013A  0E01               	movlw	1
  1294  00013C  6E29               	movwf	_init_flag^(0+1280),c
  1295                           
  1296                           ;main.c: 115:                 } else if (sw0_flag == 1) {
  1297  00013E  EFB1  F000         	goto	l338
  1298  000142                     l1870:
  1299  000142  042C               	decf	_sw0_flag^(0+1280),w,c
  1300  000144  A4D8               	btfss	status,2,c
  1301  000146  EFA7  F000         	goto	u491
  1302  00014A  EFA9  F000         	goto	u490
  1303  00014E                     u491:
  1304  00014E  EFB1  F000         	goto	l338
  1305  000152                     u490:
  1306  000152                     
  1307                           ;main.c: 116:                     sw0_flag = 0;
  1308  000152  0E00               	movlw	0
  1309  000154  6E2C               	movwf	_sw0_flag^(0+1280),c
  1310                           
  1311                           ;main.c: 117:                     init_flag = 0;
  1312  000156  0E00               	movlw	0
  1313  000158  6E2A               	movwf	(_init_flag+1)^(0+1280),c
  1314  00015A  0E00               	movlw	0
  1315  00015C  6E29               	movwf	_init_flag^(0+1280),c
  1316  00015E                     
  1317                           ;main.c: 118:                     GetOpampConfig();
  1318  00015E  EC82  F002         	call	_GetOpampConfig	;wreg free
  1319  000162                     l338:
  1320  000162  0003               	sleep		;# 
  1321                           
  1322                           ;main.c: 121:                 break;
  1323  000164  EFBA  F000         	goto	l1880
  1324  000168                     l1876:
  1325                           
  1326                           ;main.c: 124:                 printf("OPA Configuration Input Error! \r\n");
  1327  000168  0EDD               	movlw	low STR_1
  1328  00016A  6E46               	movwf	printf@fmt^(0+1280),c
  1329  00016C  0EFF               	movlw	high STR_1
  1330  00016E  6E47               	movwf	(printf@fmt+1)^(0+1280),c
  1331  000170  EC3E  F003         	call	_printf	;wreg free
  1332  000174                     l1880:
  1333  000174  C54E  F54C         	movff	_opa_config,??_main
  1334  000178  C54F  F54D         	movff	_opa_config+1,??_main+1
  1335                           
  1336                           ; Switch on 2 bytes has been partitioned into a top level switch of size 1, and 1 sub-sw
      +                          itches
  1337                           ; Switch size 1, requested type "simple"
  1338                           ; Number of cases is 1, Range of values is 0 to 0
  1339                           ; switch strategies available:
  1340                           ; Name         Instructions Cycles
  1341                           ; simple_byte            4     3 (average)
  1342                           ;	Chosen strategy is simple_byte
  1343  00017C  504D               	movf	(??_main+1)^(0+1280),w,c
  1344  00017E  0A00               	xorlw	0	; case 0
  1345  000180  B4D8               	btfsc	status,2,c
  1346  000182  EFC5  F000         	goto	l1906
  1347  000186  EFB4  F000         	goto	l1876
  1348  00018A                     l1906:
  1349                           
  1350                           ; Switch size 1, requested type "simple"
  1351                           ; Number of cases is 4, Range of values is 1 to 4
  1352                           ; switch strategies available:
  1353                           ; Name         Instructions Cycles
  1354                           ; simple_byte           13     7 (average)
  1355                           ;	Chosen strategy is simple_byte
  1356  00018A  504C               	movf	??_main^(0+1280),w,c
  1357  00018C  0A01               	xorlw	1	; case 1
  1358  00018E  B4D8               	btfsc	status,2,c
  1359  000190  EF18  F000         	goto	l1820
  1360  000194  0A03               	xorlw	3	; case 2
  1361  000196  B4D8               	btfsc	status,2,c
  1362  000198  EF3F  F000         	goto	l1834
  1363  00019C  0A01               	xorlw	1	; case 3
  1364  00019E  B4D8               	btfsc	status,2,c
  1365  0001A0  EF66  F000         	goto	l1848
  1366  0001A4  0A07               	xorlw	7	; case 4
  1367  0001A6  B4D8               	btfsc	status,2,c
  1368  0001A8  EF8D  F000         	goto	l1862
  1369  0001AC  EFB4  F000         	goto	l1876
  1370  0001B0  EF0D  F000         	goto	start
  1371  0001B4                     __end_of_main:
  1372                           	callstack 0
  1373                           
  1374 ;; *************** function _SYSTEM_Initialize *****************
  1375 ;; Defined at:
  1376 ;;		line 50 in file "mcc_generated_files/mcc.c"
  1377 ;; Parameters:    Size  Location     Type
  1378 ;;		None
  1379 ;; Auto vars:     Size  Location     Type
  1380 ;;		None
  1381 ;; Return value:  Size  Location     Type
  1382 ;;                  1    wreg      void 
  1383 ;; Registers used:
  1384 ;;		wreg, status,2, status,0, cstack
  1385 ;; Tracked objects:
  1386 ;;		On entry : 0/0
  1387 ;;		On exit  : 0/0
  1388 ;;		Unchanged: 0/0
  1389 ;; Data sizes:     COMRAM   BANK5   BANK6   BANK7   BANK8   BANK9  BANK10  BANK11  BANK12  BANK13  BANK14  BANK15  BANK1
      +6  BANK17  BANK18  BANK19  BANK20
  1390 ;;      Params:         0       0       0       0       0       0       0       0       0       0       0       0       
      +0       0       0       0       0
  1391 ;;      Locals:         0       0       0       0       0       0       0       0       0       0       0       0       
      +0       0       0       0       0
  1392 ;;      Temps:          0       0       0       0       0       0       0       0       0       0       0       0       
      +0       0       0       0       0
  1393 ;;      Totals:         0       0       0       0       0       0       0       0       0       0       0       0       
      +0       0       0       0       0
  1394 ;;Total ram usage:        0 bytes
  1395 ;; Hardware stack levels used:    1
  1396 ;; Hardware stack levels required when called:    4
  1397 ;; This function calls:
  1398 ;;		_CLC1_Initialize
  1399 ;;		_INTERRUPT_Initialize
  1400 ;;		_OPA1_Initialize
  1401 ;;		_OSCILLATOR_Initialize
  1402 ;;		_PIN_MANAGER_Initialize
  1403 ;;		_PMD_Initialize
  1404 ;;		_TMR2_Initialize
  1405 ;;		_UART1_Initialize
  1406 ;; This function is called by:
  1407 ;;		_main
  1408 ;; This function uses a non-reentrant model
  1409 ;;
  1410                           
  1411                           	psect	text1
  1412  0006A2                     __ptext1:
  1413                           	callstack 0
  1414  0006A2                     _SYSTEM_Initialize:
  1415                           	callstack 123
  1416  0006A2                     
  1417                           ;mcc_generated_files/mcc.c: 52:     INTERRUPT_Initialize();
  1418  0006A2  ECE0  F003         	call	_INTERRUPT_Initialize	;wreg free
  1419  0006A6                     
  1420                           ;mcc_generated_files/mcc.c: 53:     PMD_Initialize();
  1421  0006A6  EC92  F003         	call	_PMD_Initialize	;wreg free
  1422  0006AA                     
  1423                           ;mcc_generated_files/mcc.c: 54:     PIN_MANAGER_Initialize();
  1424  0006AA  EC51  F002         	call	_PIN_MANAGER_Initialize	;wreg free
  1425  0006AE                     
  1426                           ;mcc_generated_files/mcc.c: 55:     OSCILLATOR_Initialize();
  1427  0006AE  ECA0  F003         	call	_OSCILLATOR_Initialize	;wreg free
  1428  0006B2                     
  1429                           ;mcc_generated_files/mcc.c: 56:     CLC1_Initialize();
  1430  0006B2  ECC6  F002         	call	_CLC1_Initialize	;wreg free
  1431  0006B6                     
  1432                           ;mcc_generated_files/mcc.c: 57:     TMR2_Initialize();
  1433  0006B6  EC83  F003         	call	_TMR2_Initialize	;wreg free
  1434  0006BA                     
  1435                           ;mcc_generated_files/mcc.c: 58:     UART1_Initialize();
  1436  0006BA  ECEB  F001         	call	_UART1_Initialize	;wreg free
  1437  0006BE                     
  1438                           ;mcc_generated_files/mcc.c: 59:     OPA1_Initialize();
  1439  0006BE  ECAE  F003         	call	_OPA1_Initialize	;wreg free
  1440  0006C2  0012               	return		;funcret
  1441  0006C4                     __end_of_SYSTEM_Initialize:
  1442                           	callstack 0
  1443                           
  1444 ;; *************** function _UART1_Initialize *****************
  1445 ;; Defined at:
  1446 ;;		line 66 in file "mcc_generated_files/uart1.c"
  1447 ;; Parameters:    Size  Location     Type
  1448 ;;		None
  1449 ;; Auto vars:     Size  Location     Type
  1450 ;;		None
  1451 ;; Return value:  Size  Location     Type
  1452 ;;                  1    wreg      void 
  1453 ;; Registers used:
  1454 ;;		wreg, status,2, status,0, cstack
  1455 ;; Tracked objects:
  1456 ;;		On entry : 0/0
  1457 ;;		On exit  : 0/0
  1458 ;;		Unchanged: 0/0
  1459 ;; Data sizes:     COMRAM   BANK5   BANK6   BANK7   BANK8   BANK9  BANK10  BANK11  BANK12  BANK13  BANK14  BANK15  BANK1
      +6  BANK17  BANK18  BANK19  BANK20
  1460 ;;      Params:         0       0       0       0       0       0       0       0       0       0       0       0       
      +0       0       0       0       0
  1461 ;;      Locals:         0       0       0       0       0       0       0       0       0       0       0       0       
      +0       0       0       0       0
  1462 ;;      Temps:          0       0       0       0       0       0       0       0       0       0       0       0       
      +0       0       0       0       0
  1463 ;;      Totals:         0       0       0       0       0       0       0       0       0       0       0       0       
      +0       0       0       0       0
  1464 ;;Total ram usage:        0 bytes
  1465 ;; Hardware stack levels used:    1
  1466 ;; Hardware stack levels required when called:    3
  1467 ;; This function calls:
  1468 ;;		_UART1_SetErrorHandler
  1469 ;;		_UART1_SetFramingErrorHandler
  1470 ;;		_UART1_SetOverrunErrorHandler
  1471 ;; This function is called by:
  1472 ;;		_SYSTEM_Initialize
  1473 ;; This function uses a non-reentrant model
  1474 ;;
  1475                           
  1476                           	psect	text2
  1477  0003D6                     __ptext2:
  1478                           	callstack 0
  1479  0003D6                     _UART1_Initialize:
  1480                           	callstack 123
  1481  0003D6                     
  1482                           ;mcc_generated_files/uart1.c: 73:     U1P1L = 0x00;
  1483  0003D6  0E00               	movlw	0
  1484  0003D8  0102               	movlb	2	; () banked
  1485  0003DA  6FA5               	movwf	165,b	;volatile
  1486                           
  1487                           ;mcc_generated_files/uart1.c: 76:     U1P1H = 0x00;
  1488  0003DC  0E00               	movlw	0
  1489  0003DE  6FA6               	movwf	166,b	;volatile
  1490                           
  1491                           ;mcc_generated_files/uart1.c: 79:     U1P2L = 0x00;
  1492  0003E0  0E00               	movlw	0
  1493  0003E2  6FA7               	movwf	167,b	;volatile
  1494                           
  1495                           ;mcc_generated_files/uart1.c: 82:     U1P2H = 0x00;
  1496  0003E4  0E00               	movlw	0
  1497  0003E6  6FA8               	movwf	168,b	;volatile
  1498                           
  1499                           ;mcc_generated_files/uart1.c: 85:     U1P3L = 0x00;
  1500  0003E8  0E00               	movlw	0
  1501  0003EA  6FA9               	movwf	169,b	;volatile
  1502                           
  1503                           ;mcc_generated_files/uart1.c: 88:     U1P3H = 0x00;
  1504  0003EC  0E00               	movlw	0
  1505  0003EE  6FAA               	movwf	170,b	;volatile
  1506                           
  1507                           ;mcc_generated_files/uart1.c: 91:     U1CON0 = 0xB0;
  1508  0003F0  0EB0               	movlw	176
  1509  0003F2  6FAB               	movwf	171,b	;volatile
  1510                           
  1511                           ;mcc_generated_files/uart1.c: 94:     U1CON1 = 0x80;
  1512  0003F4  0E80               	movlw	128
  1513  0003F6  6FAC               	movwf	172,b	;volatile
  1514                           
  1515                           ;mcc_generated_files/uart1.c: 97:     U1CON2 = 0x00;
  1516  0003F8  0E00               	movlw	0
  1517  0003FA  6FAD               	movwf	173,b	;volatile
  1518                           
  1519                           ;mcc_generated_files/uart1.c: 100:     U1BRGL = 0x82;
  1520  0003FC  0E82               	movlw	130
  1521  0003FE  6FAE               	movwf	174,b	;volatile
  1522                           
  1523                           ;mcc_generated_files/uart1.c: 103:     U1BRGH = 0x06;
  1524  000400  0E06               	movlw	6
  1525  000402  6FAF               	movwf	175,b	;volatile
  1526                           
  1527                           ;mcc_generated_files/uart1.c: 106:     U1FIFO = 0x00;
  1528  000404  0E00               	movlw	0
  1529  000406  6FB0               	movwf	176,b	;volatile
  1530                           
  1531                           ;mcc_generated_files/uart1.c: 109:     U1UIR = 0x00;
  1532  000408  0E00               	movlw	0
  1533  00040A  6FB1               	movwf	177,b	;volatile
  1534                           
  1535                           ;mcc_generated_files/uart1.c: 112:     U1ERRIR = 0x00;
  1536  00040C  0E00               	movlw	0
  1537  00040E  6FB2               	movwf	178,b	;volatile
  1538                           
  1539                           ;mcc_generated_files/uart1.c: 115:     U1ERRIE = 0x00;
  1540  000410  0E00               	movlw	0
  1541  000412  6FB3               	movwf	179,b	;volatile
  1542  000414                     
  1543                           ; BSR set to: 2
  1544                           ;mcc_generated_files/uart1.c: 118:     UART1_SetFramingErrorHandler(UART1_DefaultFraming
      +                          ErrorHandler);
  1545  000414  0E00               	movlw	0
  1546  000416  6E2D               	movwf	UART1_SetFramingErrorHandler@interruptHandler^(0+1280),c
  1547  000418  0E00               	movlw	0
  1548  00041A  6E2E               	movwf	(UART1_SetFramingErrorHandler@interruptHandler+1)^(0+1280),c
  1549  00041C  ECCD  F003         	call	_UART1_SetFramingErrorHandler	;wreg free
  1550  000420                     
  1551                           ;mcc_generated_files/uart1.c: 119:     UART1_SetOverrunErrorHandler(UART1_DefaultOverrun
      +                          ErrorHandler);
  1552  000420  0E00               	movlw	0
  1553  000422  6E2D               	movwf	UART1_SetOverrunErrorHandler@interruptHandler^(0+1280),c
  1554  000424  0E00               	movlw	0
  1555  000426  6E2E               	movwf	(UART1_SetOverrunErrorHandler@interruptHandler+1)^(0+1280),c
  1556  000428  ECC8  F003         	call	_UART1_SetOverrunErrorHandler	;wreg free
  1557  00042C                     
  1558                           ;mcc_generated_files/uart1.c: 120:     UART1_SetErrorHandler(UART1_DefaultErrorHandler);
  1559  00042C  0E00               	movlw	0
  1560  00042E  6E2D               	movwf	UART1_SetErrorHandler@interruptHandler^(0+1280),c
  1561  000430  0E00               	movlw	0
  1562  000432  6E2E               	movwf	(UART1_SetErrorHandler@interruptHandler+1)^(0+1280),c
  1563  000434  ECD2  F003         	call	_UART1_SetErrorHandler	;wreg free
  1564  000438                     
  1565                           ;mcc_generated_files/uart1.c: 122:     uart1RxLastError.status = 0;
  1566  000438  0E00               	movlw	0
  1567  00043A  6E2B               	movwf	_uart1RxLastError^(0+1280),c	;volatile
  1568  00043C  0012               	return		;funcret
  1569  00043E                     __end_of_UART1_Initialize:
  1570                           	callstack 0
  1571                           
  1572 ;; *************** function _UART1_SetOverrunErrorHandler *****************
  1573 ;; Defined at:
  1574 ;;		line 204 in file "mcc_generated_files/uart1.c"
  1575 ;; Parameters:    Size  Location     Type
  1576 ;;  interruptHan    2    0[COMRAM] PTR FTN()void 
  1577 ;;		 -> UART1_DefaultOverrunErrorHandler(1), 
  1578 ;; Auto vars:     Size  Location     Type
  1579 ;;		None
  1580 ;; Return value:  Size  Location     Type
  1581 ;;                  1    wreg      void 
  1582 ;; Registers used:
  1583 ;;		wreg, status,2, status,0
  1584 ;; Tracked objects:
  1585 ;;		On entry : 0/0
  1586 ;;		On exit  : 0/0
  1587 ;;		Unchanged: 0/0
  1588 ;; Data sizes:     COMRAM   BANK5   BANK6   BANK7   BANK8   BANK9  BANK10  BANK11  BANK12  BANK13  BANK14  BANK15  BANK1
      +6  BANK17  BANK18  BANK19  BANK20
  1589 ;;      Params:         2       0       0       0       0       0       0       0       0       0       0       0       
      +0       0       0       0       0
  1590 ;;      Locals:         0       0       0       0       0       0       0       0       0       0       0       0       
      +0       0       0       0       0
  1591 ;;      Temps:          0       0       0       0       0       0       0       0       0       0       0       0       
      +0       0       0       0       0
  1592 ;;      Totals:         2       0       0       0       0       0       0       0       0       0       0       0       
      +0       0       0       0       0
  1593 ;;Total ram usage:        2 bytes
  1594 ;; Hardware stack levels used:    1
  1595 ;; Hardware stack levels required when called:    2
  1596 ;; This function calls:
  1597 ;;		Nothing
  1598 ;; This function is called by:
  1599 ;;		_UART1_Initialize
  1600 ;; This function uses a non-reentrant model
  1601 ;;
  1602                           
  1603                           	psect	text3
  1604  000790                     __ptext3:
  1605                           	callstack 0
  1606  000790                     _UART1_SetOverrunErrorHandler:
  1607                           	callstack 123
  1608  000790                     
  1609                           ;mcc_generated_files/uart1.c: 205:     UART1_OverrunErrorHandler = interruptHandler;
  1610  000790  C52D  F552         	movff	UART1_SetOverrunErrorHandler@interruptHandler,_UART1_OverrunErrorHandler
  1611  000794  C52E  F553         	movff	UART1_SetOverrunErrorHandler@interruptHandler+1,_UART1_OverrunErrorHandler+1
  1612  000798  0012               	return		;funcret
  1613  00079A                     __end_of_UART1_SetOverrunErrorHandler:
  1614                           	callstack 0
  1615                           
  1616 ;; *************** function _UART1_SetFramingErrorHandler *****************
  1617 ;; Defined at:
  1618 ;;		line 200 in file "mcc_generated_files/uart1.c"
  1619 ;; Parameters:    Size  Location     Type
  1620 ;;  interruptHan    2    0[COMRAM] PTR FTN()void 
  1621 ;;		 -> UART1_DefaultFramingErrorHandler(1), 
  1622 ;; Auto vars:     Size  Location     Type
  1623 ;;		None
  1624 ;; Return value:  Size  Location     Type
  1625 ;;                  1    wreg      void 
  1626 ;; Registers used:
  1627 ;;		wreg, status,2, status,0
  1628 ;; Tracked objects:
  1629 ;;		On entry : 0/0
  1630 ;;		On exit  : 0/0
  1631 ;;		Unchanged: 0/0
  1632 ;; Data sizes:     COMRAM   BANK5   BANK6   BANK7   BANK8   BANK9  BANK10  BANK11  BANK12  BANK13  BANK14  BANK15  BANK1
      +6  BANK17  BANK18  BANK19  BANK20
  1633 ;;      Params:         2       0       0       0       0       0       0       0       0       0       0       0       
      +0       0       0       0       0
  1634 ;;      Locals:         0       0       0       0       0       0       0       0       0       0       0       0       
      +0       0       0       0       0
  1635 ;;      Temps:          0       0       0       0       0       0       0       0       0       0       0       0       
      +0       0       0       0       0
  1636 ;;      Totals:         2       0       0       0       0       0       0       0       0       0       0       0       
      +0       0       0       0       0
  1637 ;;Total ram usage:        2 bytes
  1638 ;; Hardware stack levels used:    1
  1639 ;; Hardware stack levels required when called:    2
  1640 ;; This function calls:
  1641 ;;		Nothing
  1642 ;; This function is called by:
  1643 ;;		_UART1_Initialize
  1644 ;; This function uses a non-reentrant model
  1645 ;;
  1646                           
  1647                           	psect	text4
  1648  00079A                     __ptext4:
  1649                           	callstack 0
  1650  00079A                     _UART1_SetFramingErrorHandler:
  1651                           	callstack 123
  1652  00079A                     
  1653                           ;mcc_generated_files/uart1.c: 201:     UART1_FramingErrorHandler = interruptHandler;
  1654  00079A  C52D  F554         	movff	UART1_SetFramingErrorHandler@interruptHandler,_UART1_FramingErrorHandler
  1655  00079E  C52E  F555         	movff	UART1_SetFramingErrorHandler@interruptHandler+1,_UART1_FramingErrorHandler+1
  1656  0007A2  0012               	return		;funcret
  1657  0007A4                     __end_of_UART1_SetFramingErrorHandler:
  1658                           	callstack 0
  1659                           
  1660 ;; *************** function _UART1_SetErrorHandler *****************
  1661 ;; Defined at:
  1662 ;;		line 208 in file "mcc_generated_files/uart1.c"
  1663 ;; Parameters:    Size  Location     Type
  1664 ;;  interruptHan    2    0[COMRAM] PTR FTN()void 
  1665 ;;		 -> UART1_DefaultErrorHandler(1), 
  1666 ;; Auto vars:     Size  Location     Type
  1667 ;;		None
  1668 ;; Return value:  Size  Location     Type
  1669 ;;                  1    wreg      void 
  1670 ;; Registers used:
  1671 ;;		wreg, status,2, status,0
  1672 ;; Tracked objects:
  1673 ;;		On entry : 0/0
  1674 ;;		On exit  : 0/0
  1675 ;;		Unchanged: 0/0
  1676 ;; Data sizes:     COMRAM   BANK5   BANK6   BANK7   BANK8   BANK9  BANK10  BANK11  BANK12  BANK13  BANK14  BANK15  BANK1
      +6  BANK17  BANK18  BANK19  BANK20
  1677 ;;      Params:         2       0       0       0       0       0       0       0       0       0       0       0       
      +0       0       0       0       0
  1678 ;;      Locals:         0       0       0       0       0       0       0       0       0       0       0       0       
      +0       0       0       0       0
  1679 ;;      Temps:          0       0       0       0       0       0       0       0       0       0       0       0       
      +0       0       0       0       0
  1680 ;;      Totals:         2       0       0       0       0       0       0       0       0       0       0       0       
      +0       0       0       0       0
  1681 ;;Total ram usage:        2 bytes
  1682 ;; Hardware stack levels used:    1
  1683 ;; Hardware stack levels required when called:    2
  1684 ;; This function calls:
  1685 ;;		Nothing
  1686 ;; This function is called by:
  1687 ;;		_UART1_Initialize
  1688 ;; This function uses a non-reentrant model
  1689 ;;
  1690                           
  1691                           	psect	text5
  1692  0007A4                     __ptext5:
  1693                           	callstack 0
  1694  0007A4                     _UART1_SetErrorHandler:
  1695                           	callstack 123
  1696  0007A4                     
  1697                           ;mcc_generated_files/uart1.c: 209:     UART1_ErrorHandler = interruptHandler;
  1698  0007A4  C52D  F550         	movff	UART1_SetErrorHandler@interruptHandler,_UART1_ErrorHandler
  1699  0007A8  C52E  F551         	movff	UART1_SetErrorHandler@interruptHandler+1,_UART1_ErrorHandler+1
  1700  0007AC  0012               	return		;funcret
  1701  0007AE                     __end_of_UART1_SetErrorHandler:
  1702                           	callstack 0
  1703                           
  1704 ;; *************** function _TMR2_Initialize *****************
  1705 ;; Defined at:
  1706 ;;		line 62 in file "mcc_generated_files/tmr2.c"
  1707 ;; Parameters:    Size  Location     Type
  1708 ;;		None
  1709 ;; Auto vars:     Size  Location     Type
  1710 ;;		None
  1711 ;; Return value:  Size  Location     Type
  1712 ;;                  1    wreg      void 
  1713 ;; Registers used:
  1714 ;;		wreg, status,2
  1715 ;; Tracked objects:
  1716 ;;		On entry : 0/0
  1717 ;;		On exit  : 0/0
  1718 ;;		Unchanged: 0/0
  1719 ;; Data sizes:     COMRAM   BANK5   BANK6   BANK7   BANK8   BANK9  BANK10  BANK11  BANK12  BANK13  BANK14  BANK15  BANK1
      +6  BANK17  BANK18  BANK19  BANK20
  1720 ;;      Params:         0       0       0       0       0       0       0       0       0       0       0       0       
      +0       0       0       0       0
  1721 ;;      Locals:         0       0       0       0       0       0       0       0       0       0       0       0       
      +0       0       0       0       0
  1722 ;;      Temps:          0       0       0       0       0       0       0       0       0       0       0       0       
      +0       0       0       0       0
  1723 ;;      Totals:         0       0       0       0       0       0       0       0       0       0       0       0       
      +0       0       0       0       0
  1724 ;;Total ram usage:        0 bytes
  1725 ;; Hardware stack levels used:    1
  1726 ;; Hardware stack levels required when called:    2
  1727 ;; This function calls:
  1728 ;;		Nothing
  1729 ;; This function is called by:
  1730 ;;		_SYSTEM_Initialize
  1731 ;; This function uses a non-reentrant model
  1732 ;;
  1733                           
  1734                           	psect	text6
  1735  000706                     __ptext6:
  1736                           	callstack 0
  1737  000706                     _TMR2_Initialize:
  1738                           	callstack 124
  1739  000706                     
  1740                           ;mcc_generated_files/tmr2.c: 67:     T2CLKCON = 0x04;
  1741  000706  0E04               	movlw	4
  1742  000708  0103               	movlb	3	; () banked
  1743  00070A  6F20               	movwf	32,b	;volatile
  1744                           
  1745                           ;mcc_generated_files/tmr2.c: 70:     T2HLT = 0x13;
  1746  00070C  0E13               	movlw	19
  1747  00070E  6F1F               	movwf	31,b	;volatile
  1748                           
  1749                           ;mcc_generated_files/tmr2.c: 73:     T2RST = 0x00;
  1750  000710  0E00               	movlw	0
  1751  000712  6F21               	movwf	33,b	;volatile
  1752                           
  1753                           ;mcc_generated_files/tmr2.c: 76:     T2PR = 0xC1;
  1754  000714  0EC1               	movlw	193
  1755  000716  6F1D               	movwf	29,b	;volatile
  1756                           
  1757                           ;mcc_generated_files/tmr2.c: 79:     T2TMR = 0x00;
  1758  000718  0E00               	movlw	0
  1759  00071A  6F1C               	movwf	28,b	;volatile
  1760  00071C                     
  1761                           ; BSR set to: 3
  1762                           ;mcc_generated_files/tmr2.c: 82:     PIR3bits.TMR2IF = 0;
  1763  00071C  96B6               	bcf	182,3,c	;volatile
  1764                           
  1765                           ;mcc_generated_files/tmr2.c: 85:     T2CON = 0xB0;
  1766  00071E  0EB0               	movlw	176
  1767  000720  6F1E               	movwf	30,b	;volatile
  1768  000722                     
  1769                           ; BSR set to: 3
  1770  000722  0012               	return		;funcret
  1771  000724                     __end_of_TMR2_Initialize:
  1772                           	callstack 0
  1773                           
  1774 ;; *************** function _PMD_Initialize *****************
  1775 ;; Defined at:
  1776 ;;		line 78 in file "mcc_generated_files/mcc.c"
  1777 ;; Parameters:    Size  Location     Type
  1778 ;;		None
  1779 ;; Auto vars:     Size  Location     Type
  1780 ;;		None
  1781 ;; Return value:  Size  Location     Type
  1782 ;;                  1    wreg      void 
  1783 ;; Registers used:
  1784 ;;		wreg, status,2
  1785 ;; Tracked objects:
  1786 ;;		On entry : 0/0
  1787 ;;		On exit  : 0/0
  1788 ;;		Unchanged: 0/0
  1789 ;; Data sizes:     COMRAM   BANK5   BANK6   BANK7   BANK8   BANK9  BANK10  BANK11  BANK12  BANK13  BANK14  BANK15  BANK1
      +6  BANK17  BANK18  BANK19  BANK20
  1790 ;;      Params:         0       0       0       0       0       0       0       0       0       0       0       0       
      +0       0       0       0       0
  1791 ;;      Locals:         0       0       0       0       0       0       0       0       0       0       0       0       
      +0       0       0       0       0
  1792 ;;      Temps:          0       0       0       0       0       0       0       0       0       0       0       0       
      +0       0       0       0       0
  1793 ;;      Totals:         0       0       0       0       0       0       0       0       0       0       0       0       
      +0       0       0       0       0
  1794 ;;Total ram usage:        0 bytes
  1795 ;; Hardware stack levels used:    1
  1796 ;; Hardware stack levels required when called:    2
  1797 ;; This function calls:
  1798 ;;		Nothing
  1799 ;; This function is called by:
  1800 ;;		_SYSTEM_Initialize
  1801 ;; This function uses a non-reentrant model
  1802 ;;
  1803                           
  1804                           	psect	text7
  1805  000724                     __ptext7:
  1806                           	callstack 0
  1807  000724                     _PMD_Initialize:
  1808                           	callstack 124
  1809  000724                     
  1810                           ;mcc_generated_files/mcc.c: 81:     PMD0 = 0x00;
  1811  000724  0E00               	movlw	0
  1812  000726  0100               	movlb	0	; () banked
  1813  000728  6F63               	movwf	99,b	;volatile
  1814                           
  1815                           ;mcc_generated_files/mcc.c: 83:     PMD1 = 0x00;
  1816  00072A  0E00               	movlw	0
  1817  00072C  6F64               	movwf	100,b	;volatile
  1818                           
  1819                           ;mcc_generated_files/mcc.c: 85:     PMD2 = 0x00;
  1820  00072E  0E00               	movlw	0
  1821  000730  6F65               	movwf	101,b	;volatile
  1822                           
  1823                           ;mcc_generated_files/mcc.c: 87:     PMD3 = 0x00;
  1824  000732  0E00               	movlw	0
  1825  000734  6F66               	movwf	102,b	;volatile
  1826                           
  1827                           ;mcc_generated_files/mcc.c: 89:     PMD4 = 0x00;
  1828  000736  0E00               	movlw	0
  1829  000738  6F67               	movwf	103,b	;volatile
  1830                           
  1831                           ;mcc_generated_files/mcc.c: 91:     PMD5 = 0x00;
  1832  00073A  0E00               	movlw	0
  1833  00073C  6F68               	movwf	104,b	;volatile
  1834  00073E                     
  1835                           ; BSR set to: 0
  1836  00073E  0012               	return		;funcret
  1837  000740                     __end_of_PMD_Initialize:
  1838                           	callstack 0
  1839                           
  1840 ;; *************** function _PIN_MANAGER_Initialize *****************
  1841 ;; Defined at:
  1842 ;;		line 55 in file "mcc_generated_files/pin_manager.c"
  1843 ;; Parameters:    Size  Location     Type
  1844 ;;		None
  1845 ;; Auto vars:     Size  Location     Type
  1846 ;;		None
  1847 ;; Return value:  Size  Location     Type
  1848 ;;                  1    wreg      void 
  1849 ;; Registers used:
  1850 ;;		wreg, status,2
  1851 ;; Tracked objects:
  1852 ;;		On entry : 0/0
  1853 ;;		On exit  : 0/0
  1854 ;;		Unchanged: 0/0
  1855 ;; Data sizes:     COMRAM   BANK5   BANK6   BANK7   BANK8   BANK9  BANK10  BANK11  BANK12  BANK13  BANK14  BANK15  BANK1
      +6  BANK17  BANK18  BANK19  BANK20
  1856 ;;      Params:         0       0       0       0       0       0       0       0       0       0       0       0       
      +0       0       0       0       0
  1857 ;;      Locals:         0       0       0       0       0       0       0       0       0       0       0       0       
      +0       0       0       0       0
  1858 ;;      Temps:          0       0       0       0       0       0       0       0       0       0       0       0       
      +0       0       0       0       0
  1859 ;;      Totals:         0       0       0       0       0       0       0       0       0       0       0       0       
      +0       0       0       0       0
  1860 ;;Total ram usage:        0 bytes
  1861 ;; Hardware stack levels used:    1
  1862 ;; Hardware stack levels required when called:    2
  1863 ;; This function calls:
  1864 ;;		Nothing
  1865 ;; This function is called by:
  1866 ;;		_SYSTEM_Initialize
  1867 ;; This function uses a non-reentrant model
  1868 ;;
  1869                           
  1870                           	psect	text8
  1871  0004A2                     __ptext8:
  1872                           	callstack 0
  1873  0004A2                     _PIN_MANAGER_Initialize:
  1874                           	callstack 124
  1875  0004A2                     
  1876                           ;mcc_generated_files/pin_manager.c: 60:     LATA = 0x00;
  1877  0004A2  0E00               	movlw	0
  1878  0004A4  6EBE               	movwf	190,c	;volatile
  1879                           
  1880                           ;mcc_generated_files/pin_manager.c: 61:     LATB = 0x00;
  1881  0004A6  0E00               	movlw	0
  1882  0004A8  6EBF               	movwf	191,c	;volatile
  1883                           
  1884                           ;mcc_generated_files/pin_manager.c: 62:     LATC = 0x02;
  1885  0004AA  0E02               	movlw	2
  1886  0004AC  6EC0               	movwf	192,c	;volatile
  1887                           
  1888                           ;mcc_generated_files/pin_manager.c: 67:     TRISA = 0x3F;
  1889  0004AE  0E3F               	movlw	63
  1890  0004B0  6EC6               	movwf	198,c	;volatile
  1891                           
  1892                           ;mcc_generated_files/pin_manager.c: 68:     TRISB = 0x70;
  1893  0004B2  0E70               	movlw	112
  1894  0004B4  6EC7               	movwf	199,c	;volatile
  1895                           
  1896                           ;mcc_generated_files/pin_manager.c: 69:     TRISC = 0xFD;
  1897  0004B6  0EFD               	movlw	253
  1898  0004B8  6EC8               	movwf	200,c	;volatile
  1899                           
  1900                           ;mcc_generated_files/pin_manager.c: 74:     ANSELC = 0xFE;
  1901  0004BA  0EFE               	movlw	254
  1902  0004BC  0104               	movlb	4	; () banked
  1903  0004BE  6F10               	movwf	16,b	;volatile
  1904                           
  1905                           ;mcc_generated_files/pin_manager.c: 75:     ANSELB = 0xD0;
  1906  0004C0  0ED0               	movlw	208
  1907  0004C2  6F08               	movwf	8,b	;volatile
  1908                           
  1909                           ;mcc_generated_files/pin_manager.c: 76:     ANSELA = 0x07;
  1910  0004C4  0E07               	movlw	7
  1911  0004C6  6F00               	movwf	0,b	;volatile
  1912                           
  1913                           ;mcc_generated_files/pin_manager.c: 81:     WPUB = 0x00;
  1914  0004C8  0E00               	movlw	0
  1915  0004CA  6F09               	movwf	9,b	;volatile
  1916                           
  1917                           ;mcc_generated_files/pin_manager.c: 82:     WPUA = 0x30;
  1918  0004CC  0E30               	movlw	48
  1919  0004CE  6F01               	movwf	1,b	;volatile
  1920                           
  1921                           ;mcc_generated_files/pin_manager.c: 83:     WPUC = 0x03;
  1922  0004D0  0E03               	movlw	3
  1923  0004D2  6F11               	movwf	17,b	;volatile
  1924                           
  1925                           ;mcc_generated_files/pin_manager.c: 88:     ODCONA = 0x00;
  1926  0004D4  0E00               	movlw	0
  1927  0004D6  6F02               	movwf	2,b	;volatile
  1928                           
  1929                           ;mcc_generated_files/pin_manager.c: 89:     ODCONB = 0x00;
  1930  0004D8  0E00               	movlw	0
  1931  0004DA  6F0A               	movwf	10,b	;volatile
  1932                           
  1933                           ;mcc_generated_files/pin_manager.c: 90:     ODCONC = 0x00;
  1934  0004DC  0E00               	movlw	0
  1935  0004DE  6F12               	movwf	18,b	;volatile
  1936                           
  1937                           ;mcc_generated_files/pin_manager.c: 95:     SLRCONA = 0x37;
  1938  0004E0  0E37               	movlw	55
  1939  0004E2  6F03               	movwf	3,b	;volatile
  1940                           
  1941                           ;mcc_generated_files/pin_manager.c: 96:     SLRCONB = 0xF0;
  1942  0004E4  0EF0               	movlw	240
  1943  0004E6  6F0B               	movwf	11,b	;volatile
  1944  0004E8                     
  1945                           ; BSR set to: 4
  1946                           ;mcc_generated_files/pin_manager.c: 97:     SLRCONC = 0xFF;
  1947  0004E8  6913               	setf	19,b	;volatile
  1948                           
  1949                           ;mcc_generated_files/pin_manager.c: 102:     INLVLA = 0x3F;
  1950  0004EA  0E3F               	movlw	63
  1951  0004EC  6F04               	movwf	4,b	;volatile
  1952                           
  1953                           ;mcc_generated_files/pin_manager.c: 103:     INLVLB = 0xF0;
  1954  0004EE  0EF0               	movlw	240
  1955  0004F0  6F0C               	movwf	12,b	;volatile
  1956  0004F2                     
  1957                           ; BSR set to: 4
  1958                           ;mcc_generated_files/pin_manager.c: 104:     INLVLC = 0xFF;
  1959  0004F2  6914               	setf	20,b	;volatile
  1960                           
  1961                           ;mcc_generated_files/pin_manager.c: 113:     RB7PPS = 0x10;
  1962  0004F4  0E10               	movlw	16
  1963  0004F6  0102               	movlb	2	; () banked
  1964  0004F8  6F10               	movwf	16,b	;volatile
  1965                           
  1966                           ;mcc_generated_files/pin_manager.c: 114:     T2INPPS = 0x10;
  1967  0004FA  0E10               	movlw	16
  1968  0004FC  6F48               	movwf	72,b	;volatile
  1969                           
  1970                           ;mcc_generated_files/pin_manager.c: 115:     U1RXPPS = 0x0D;
  1971  0004FE  0E0D               	movlw	13
  1972  000500  6F72               	movwf	114,b	;volatile
  1973  000502                     
  1974                           ; BSR set to: 2
  1975  000502  0012               	return		;funcret
  1976  000504                     __end_of_PIN_MANAGER_Initialize:
  1977                           	callstack 0
  1978                           
  1979 ;; *************** function _OSCILLATOR_Initialize *****************
  1980 ;; Defined at:
  1981 ;;		line 62 in file "mcc_generated_files/mcc.c"
  1982 ;; Parameters:    Size  Location     Type
  1983 ;;		None
  1984 ;; Auto vars:     Size  Location     Type
  1985 ;;		None
  1986 ;; Return value:  Size  Location     Type
  1987 ;;                  1    wreg      void 
  1988 ;; Registers used:
  1989 ;;		wreg, status,2
  1990 ;; Tracked objects:
  1991 ;;		On entry : 0/0
  1992 ;;		On exit  : 0/0
  1993 ;;		Unchanged: 0/0
  1994 ;; Data sizes:     COMRAM   BANK5   BANK6   BANK7   BANK8   BANK9  BANK10  BANK11  BANK12  BANK13  BANK14  BANK15  BANK1
      +6  BANK17  BANK18  BANK19  BANK20
  1995 ;;      Params:         0       0       0       0       0       0       0       0       0       0       0       0       
      +0       0       0       0       0
  1996 ;;      Locals:         0       0       0       0       0       0       0       0       0       0       0       0       
      +0       0       0       0       0
  1997 ;;      Temps:          0       0       0       0       0       0       0       0       0       0       0       0       
      +0       0       0       0       0
  1998 ;;      Totals:         0       0       0       0       0       0       0       0       0       0       0       0       
      +0       0       0       0       0
  1999 ;;Total ram usage:        0 bytes
  2000 ;; Hardware stack levels used:    1
  2001 ;; Hardware stack levels required when called:    2
  2002 ;; This function calls:
  2003 ;;		Nothing
  2004 ;; This function is called by:
  2005 ;;		_SYSTEM_Initialize
  2006 ;; This function uses a non-reentrant model
  2007 ;;
  2008                           
  2009                           	psect	text9
  2010  000740                     __ptext9:
  2011                           	callstack 0
  2012  000740                     _OSCILLATOR_Initialize:
  2013                           	callstack 124
  2014  000740                     
  2015                           ;mcc_generated_files/mcc.c: 65:     OSCCON1 = 0x60;
  2016  000740  0E60               	movlw	96
  2017  000742  0100               	movlb	0	; () banked
  2018  000744  6FAD               	movwf	173,b	;volatile
  2019                           
  2020                           ;mcc_generated_files/mcc.c: 67:     OSCCON3 = 0x00;
  2021  000746  0E00               	movlw	0
  2022  000748  6FAF               	movwf	175,b	;volatile
  2023                           
  2024                           ;mcc_generated_files/mcc.c: 69:     OSCEN = 0x00;
  2025  00074A  0E00               	movlw	0
  2026  00074C  6FB3               	movwf	179,b	;volatile
  2027                           
  2028                           ;mcc_generated_files/mcc.c: 71:     OSCFRQ = 0x08;
  2029  00074E  0E08               	movlw	8
  2030  000750  6FB1               	movwf	177,b	;volatile
  2031                           
  2032                           ;mcc_generated_files/mcc.c: 73:     OSCTUNE = 0x00;
  2033  000752  0E00               	movlw	0
  2034  000754  6FB0               	movwf	176,b	;volatile
  2035                           
  2036                           ;mcc_generated_files/mcc.c: 75:     ACTCON = 0x00;
  2037  000756  0E00               	movlw	0
  2038  000758  6FAC               	movwf	172,b	;volatile
  2039  00075A                     
  2040                           ; BSR set to: 0
  2041  00075A  0012               	return		;funcret
  2042  00075C                     __end_of_OSCILLATOR_Initialize:
  2043                           	callstack 0
  2044                           
  2045 ;; *************** function _OPA1_Initialize *****************
  2046 ;; Defined at:
  2047 ;;		line 55 in file "mcc_generated_files/opa1.c"
  2048 ;; Parameters:    Size  Location     Type
  2049 ;;		None
  2050 ;; Auto vars:     Size  Location     Type
  2051 ;;		None
  2052 ;; Return value:  Size  Location     Type
  2053 ;;                  1    wreg      void 
  2054 ;; Registers used:
  2055 ;;		wreg, status,2
  2056 ;; Tracked objects:
  2057 ;;		On entry : 0/0
  2058 ;;		On exit  : 0/0
  2059 ;;		Unchanged: 0/0
  2060 ;; Data sizes:     COMRAM   BANK5   BANK6   BANK7   BANK8   BANK9  BANK10  BANK11  BANK12  BANK13  BANK14  BANK15  BANK1
      +6  BANK17  BANK18  BANK19  BANK20
  2061 ;;      Params:         0       0       0       0       0       0       0       0       0       0       0       0       
      +0       0       0       0       0
  2062 ;;      Locals:         0       0       0       0       0       0       0       0       0       0       0       0       
      +0       0       0       0       0
  2063 ;;      Temps:          0       0       0       0       0       0       0       0       0       0       0       0       
      +0       0       0       0       0
  2064 ;;      Totals:         0       0       0       0       0       0       0       0       0       0       0       0       
      +0       0       0       0       0
  2065 ;;Total ram usage:        0 bytes
  2066 ;; Hardware stack levels used:    1
  2067 ;; Hardware stack levels required when called:    2
  2068 ;; This function calls:
  2069 ;;		Nothing
  2070 ;; This function is called by:
  2071 ;;		_SYSTEM_Initialize
  2072 ;; This function uses a non-reentrant model
  2073 ;;
  2074                           
  2075                           	psect	text10
  2076  00075C                     __ptext10:
  2077                           	callstack 0
  2078  00075C                     _OPA1_Initialize:
  2079                           	callstack 124
  2080  00075C                     
  2081                           ;mcc_generated_files/opa1.c: 58:     OPA1CON1 = 0x02;
  2082  00075C  0E02               	movlw	2
  2083  00075E  0100               	movlb	0	; () banked
  2084  000760  6FA4               	movwf	164,b	;volatile
  2085                           
  2086                           ;mcc_generated_files/opa1.c: 61:     OPA1CON2 = 0x22;
  2087  000762  0E22               	movlw	34
  2088  000764  6FA5               	movwf	165,b	;volatile
  2089                           
  2090                           ;mcc_generated_files/opa1.c: 64:     OPA1CON3 = 0x01;
  2091  000766  0E01               	movlw	1
  2092  000768  6FA6               	movwf	166,b	;volatile
  2093                           
  2094                           ;mcc_generated_files/opa1.c: 67:     OPA1HWC = 0x00;
  2095  00076A  0E00               	movlw	0
  2096  00076C  6FA7               	movwf	167,b	;volatile
  2097                           
  2098                           ;mcc_generated_files/opa1.c: 70:     OPA1ORS = 0x00;
  2099  00076E  0E00               	movlw	0
  2100  000770  6FA9               	movwf	169,b	;volatile
  2101                           
  2102                           ;mcc_generated_files/opa1.c: 73:     OPA1CON0 = 0xC0;
  2103  000772  0EC0               	movlw	192
  2104  000774  6FA3               	movwf	163,b	;volatile
  2105  000776                     
  2106                           ; BSR set to: 0
  2107  000776  0012               	return		;funcret
  2108  000778                     __end_of_OPA1_Initialize:
  2109                           	callstack 0
  2110                           
  2111 ;; *************** function _INTERRUPT_Initialize *****************
  2112 ;; Defined at:
  2113 ;;		line 52 in file "mcc_generated_files/interrupt_manager.c"
  2114 ;; Parameters:    Size  Location     Type
  2115 ;;		None
  2116 ;; Auto vars:     Size  Location     Type
  2117 ;;		None
  2118 ;; Return value:  Size  Location     Type
  2119 ;;                  1    wreg      void 
  2120 ;; Registers used:
  2121 ;;		None
  2122 ;; Tracked objects:
  2123 ;;		On entry : 0/0
  2124 ;;		On exit  : 0/0
  2125 ;;		Unchanged: 0/0
  2126 ;; Data sizes:     COMRAM   BANK5   BANK6   BANK7   BANK8   BANK9  BANK10  BANK11  BANK12  BANK13  BANK14  BANK15  BANK1
      +6  BANK17  BANK18  BANK19  BANK20
  2127 ;;      Params:         0       0       0       0       0       0       0       0       0       0       0       0       
      +0       0       0       0       0
  2128 ;;      Locals:         0       0       0       0       0       0       0       0       0       0       0       0       
      +0       0       0       0       0
  2129 ;;      Temps:          0       0       0       0       0       0       0       0       0       0       0       0       
      +0       0       0       0       0
  2130 ;;      Totals:         0       0       0       0       0       0       0       0       0       0       0       0       
      +0       0       0       0       0
  2131 ;;Total ram usage:        0 bytes
  2132 ;; Hardware stack levels used:    1
  2133 ;; Hardware stack levels required when called:    2
  2134 ;; This function calls:
  2135 ;;		Nothing
  2136 ;; This function is called by:
  2137 ;;		_SYSTEM_Initialize
  2138 ;; This function uses a non-reentrant model
  2139 ;;
  2140                           
  2141                           	psect	text11
  2142  0007C0                     __ptext11:
  2143                           	callstack 0
  2144  0007C0                     _INTERRUPT_Initialize:
  2145                           	callstack 124
  2146  0007C0                     
  2147                           ;mcc_generated_files/interrupt_manager.c: 55:     INTCON0bits.IPEN = 0;
  2148  0007C0  9AD6               	bcf	214,5,c	;volatile
  2149  0007C2  0012               	return		;funcret
  2150  0007C4                     __end_of_INTERRUPT_Initialize:
  2151                           	callstack 0
  2152                           
  2153 ;; *************** function _CLC1_Initialize *****************
  2154 ;; Defined at:
  2155 ;;		line 58 in file "mcc_generated_files/clc1.c"
  2156 ;; Parameters:    Size  Location     Type
  2157 ;;		None
  2158 ;; Auto vars:     Size  Location     Type
  2159 ;;		None
  2160 ;; Return value:  Size  Location     Type
  2161 ;;                  1    wreg      void 
  2162 ;; Registers used:
  2163 ;;		wreg, status,2
  2164 ;; Tracked objects:
  2165 ;;		On entry : 0/0
  2166 ;;		On exit  : 0/0
  2167 ;;		Unchanged: 0/0
  2168 ;; Data sizes:     COMRAM   BANK5   BANK6   BANK7   BANK8   BANK9  BANK10  BANK11  BANK12  BANK13  BANK14  BANK15  BANK1
      +6  BANK17  BANK18  BANK19  BANK20
  2169 ;;      Params:         0       0       0       0       0       0       0       0       0       0       0       0       
      +0       0       0       0       0
  2170 ;;      Locals:         0       0       0       0       0       0       0       0       0       0       0       0       
      +0       0       0       0       0
  2171 ;;      Temps:          0       0       0       0       0       0       0       0       0       0       0       0       
      +0       0       0       0       0
  2172 ;;      Totals:         0       0       0       0       0       0       0       0       0       0       0       0       
      +0       0       0       0       0
  2173 ;;Total ram usage:        0 bytes
  2174 ;; Hardware stack levels used:    1
  2175 ;; Hardware stack levels required when called:    2
  2176 ;; This function calls:
  2177 ;;		Nothing
  2178 ;; This function is called by:
  2179 ;;		_SYSTEM_Initialize
  2180 ;; This function uses a non-reentrant model
  2181 ;;
  2182                           
  2183                           	psect	text12
  2184  00058C                     __ptext12:
  2185                           	callstack 0
  2186  00058C                     _CLC1_Initialize:
  2187                           	callstack 124
  2188  00058C                     
  2189                           ;mcc_generated_files/clc1.c: 63:     CLCSELECT = 0x00;
  2190  00058C  0E00               	movlw	0
  2191  00058E  0100               	movlb	0	; () banked
  2192  000590  6FD5               	movwf	213,b	;volatile
  2193                           
  2194                           ;mcc_generated_files/clc1.c: 65:     CLCnPOL = 0x0A;
  2195  000592  0E0A               	movlw	10
  2196  000594  6FD7               	movwf	215,b	;volatile
  2197                           
  2198                           ;mcc_generated_files/clc1.c: 67:     CLCnSEL0 = 0x10;
  2199  000596  0E10               	movlw	16
  2200  000598  6FD8               	movwf	216,b	;volatile
  2201                           
  2202                           ;mcc_generated_files/clc1.c: 69:     CLCnSEL1 = 0x14;
  2203  00059A  0E14               	movlw	20
  2204  00059C  6FD9               	movwf	217,b	;volatile
  2205                           
  2206                           ;mcc_generated_files/clc1.c: 71:     CLCnSEL2 = 0x14;
  2207  00059E  0E14               	movlw	20
  2208  0005A0  6FDA               	movwf	218,b	;volatile
  2209                           
  2210                           ;mcc_generated_files/clc1.c: 73:     CLCnSEL3 = 0x14;
  2211  0005A2  0E14               	movlw	20
  2212  0005A4  6FDB               	movwf	219,b	;volatile
  2213                           
  2214                           ;mcc_generated_files/clc1.c: 75:     CLCnGLS0 = 0x02;
  2215  0005A6  0E02               	movlw	2
  2216  0005A8  6FDC               	movwf	220,b	;volatile
  2217                           
  2218                           ;mcc_generated_files/clc1.c: 77:     CLCnGLS1 = 0x00;
  2219  0005AA  0E00               	movlw	0
  2220  0005AC  6FDD               	movwf	221,b	;volatile
  2221                           
  2222                           ;mcc_generated_files/clc1.c: 79:     CLCnGLS2 = 0x00;
  2223  0005AE  0E00               	movlw	0
  2224  0005B0  6FDE               	movwf	222,b	;volatile
  2225                           
  2226                           ;mcc_generated_files/clc1.c: 81:     CLCnGLS3 = 0x00;
  2227  0005B2  0E00               	movlw	0
  2228  0005B4  6FDF               	movwf	223,b	;volatile
  2229                           
  2230                           ;mcc_generated_files/clc1.c: 83:     CLCDATA = 0x00;
  2231  0005B6  0E00               	movlw	0
  2232  0005B8  6FD4               	movwf	212,b	;volatile
  2233                           
  2234                           ;mcc_generated_files/clc1.c: 85:     CLCnCON = 0x9E;
  2235  0005BA  0E9E               	movlw	158
  2236  0005BC  6FD6               	movwf	214,b	;volatile
  2237  0005BE                     
  2238                           ; BSR set to: 0
  2239                           ;mcc_generated_files/clc1.c: 88:     PIR0bits.CLC1IF = 0;
  2240  0005BE  9AB3               	bcf	179,5,c	;volatile
  2241  0005C0                     
  2242                           ; BSR set to: 0
  2243                           ;mcc_generated_files/clc1.c: 90:     PIE0bits.CLC1IE = 1;
  2244  0005C0  8AA8               	bsf	168,5,c	;volatile
  2245  0005C2                     
  2246                           ; BSR set to: 0
  2247  0005C2  0012               	return		;funcret
  2248  0005C4                     __end_of_CLC1_Initialize:
  2249                           	callstack 0
  2250                           
  2251 ;; *************** function _OPA_UnityGain *****************
  2252 ;; Defined at:
  2253 ;;		line 43 in file "application.c"
  2254 ;; Parameters:    Size  Location     Type
  2255 ;;		None
  2256 ;; Auto vars:     Size  Location     Type
  2257 ;;		None
  2258 ;; Return value:  Size  Location     Type
  2259 ;;                  1    wreg      void 
  2260 ;; Registers used:
  2261 ;;		wreg, fsr1l, fsr1h, fsr2l, fsr2h, status,2, status,0, tblptrl, tblptrh, tblptru, cstack
  2262 ;; Tracked objects:
  2263 ;;		On entry : 0/0
  2264 ;;		On exit  : 0/0
  2265 ;;		Unchanged: 0/0
  2266 ;; Data sizes:     COMRAM   BANK5   BANK6   BANK7   BANK8   BANK9  BANK10  BANK11  BANK12  BANK13  BANK14  BANK15  BANK1
      +6  BANK17  BANK18  BANK19  BANK20
  2267 ;;      Params:         0       0       0       0       0       0       0       0       0       0       0       0       
      +0       0       0       0       0
  2268 ;;      Locals:         0       0       0       0       0       0       0       0       0       0       0       0       
      +0       0       0       0       0
  2269 ;;      Temps:          0       0       0       0       0       0       0       0       0       0       0       0       
      +0       0       0       0       0
  2270 ;;      Totals:         0       0       0       0       0       0       0       0       0       0       0       0       
      +0       0       0       0       0
  2271 ;;Total ram usage:        0 bytes
  2272 ;; Hardware stack levels used:    1
  2273 ;; Hardware stack levels required when called:    8
  2274 ;; This function calls:
  2275 ;;		_printf
  2276 ;; This function is called by:
  2277 ;;		_main
  2278 ;; This function uses a non-reentrant model
  2279 ;;
  2280                           
  2281                           	psect	text13
  2282  0005C4                     __ptext13:
  2283                           	callstack 0
  2284  0005C4                     _OPA_UnityGain:
  2285                           	callstack 119
  2286  0005C4                     
  2287                           ;application.c: 44:     printf("OPA Configuration: Unity Gain Buffer \r\n");
  2288  0005C4  0E48               	movlw	low STR_9
  2289  0005C6  6E46               	movwf	printf@fmt^(0+1280),c
  2290  0005C8  0EFF               	movlw	high STR_9
  2291  0005CA  6E47               	movwf	(printf@fmt+1)^(0+1280),c
  2292  0005CC  EC3E  F003         	call	_printf	;wreg free
  2293                           
  2294                           ;application.c: 45:     printf("OPA1OUT = RC2 | OPA1IN+ = RC3 \r\n\r\n");
  2295  0005D0  0EBA               	movlw	low STR_10
  2296  0005D2  6E46               	movwf	printf@fmt^(0+1280),c
  2297  0005D4  0EFF               	movlw	high STR_10
  2298  0005D6  6E47               	movwf	(printf@fmt+1)^(0+1280),c
  2299  0005D8  EC3E  F003         	call	_printf	;wreg free
  2300  0005DC                     
  2301                           ;application.c: 46:     OPA1CON0bits.EN = 0;
  2302  0005DC  0100               	movlb	0	; () banked
  2303  0005DE  9FA3               	bcf	163,7,b	;volatile
  2304  0005E0                     
  2305                           ; BSR set to: 0
  2306                           ;application.c: 47:     OPA1CON1 = 0x00;
  2307  0005E0  0E00               	movlw	0
  2308  0005E2  6FA4               	movwf	164,b	;volatile
  2309  0005E4                     
  2310                           ; BSR set to: 0
  2311                           ;application.c: 48:     OPA1CON2 = 0x02;
  2312  0005E4  0E02               	movlw	2
  2313  0005E6  6FA5               	movwf	165,b	;volatile
  2314  0005E8                     
  2315                           ; BSR set to: 0
  2316                           ;application.c: 49:     OPA1CON3 = 0x01;
  2317  0005E8  0E01               	movlw	1
  2318  0005EA  6FA6               	movwf	166,b	;volatile
  2319  0005EC                     
  2320                           ; BSR set to: 0
  2321                           ;application.c: 50:     OPA1CON0 = 0xC8;
  2322  0005EC  0EC8               	movlw	200
  2323  0005EE  6FA3               	movwf	163,b	;volatile
  2324  0005F0                     
  2325                           ; BSR set to: 0
  2326  0005F0  0012               	return		;funcret
  2327  0005F2                     __end_of_OPA_UnityGain:
  2328                           	callstack 0
  2329                           
  2330 ;; *************** function _OPA_NonInverting *****************
  2331 ;; Defined at:
  2332 ;;		line 53 in file "application.c"
  2333 ;; Parameters:    Size  Location     Type
  2334 ;;		None
  2335 ;; Auto vars:     Size  Location     Type
  2336 ;;		None
  2337 ;; Return value:  Size  Location     Type
  2338 ;;                  1    wreg      void 
  2339 ;; Registers used:
  2340 ;;		wreg, fsr1l, fsr1h, fsr2l, fsr2h, status,2, status,0, tblptrl, tblptrh, tblptru, cstack
  2341 ;; Tracked objects:
  2342 ;;		On entry : 0/0
  2343 ;;		On exit  : 0/0
  2344 ;;		Unchanged: 0/0
  2345 ;; Data sizes:     COMRAM   BANK5   BANK6   BANK7   BANK8   BANK9  BANK10  BANK11  BANK12  BANK13  BANK14  BANK15  BANK1
      +6  BANK17  BANK18  BANK19  BANK20
  2346 ;;      Params:         0       0       0       0       0       0       0       0       0       0       0       0       
      +0       0       0       0       0
  2347 ;;      Locals:         0       0       0       0       0       0       0       0       0       0       0       0       
      +0       0       0       0       0
  2348 ;;      Temps:          0       0       0       0       0       0       0       0       0       0       0       0       
      +0       0       0       0       0
  2349 ;;      Totals:         0       0       0       0       0       0       0       0       0       0       0       0       
      +0       0       0       0       0
  2350 ;;Total ram usage:        0 bytes
  2351 ;; Hardware stack levels used:    1
  2352 ;; Hardware stack levels required when called:    8
  2353 ;; This function calls:
  2354 ;;		_printf
  2355 ;; This function is called by:
  2356 ;;		_main
  2357 ;; This function uses a non-reentrant model
  2358 ;;
  2359                           
  2360                           	psect	text14
  2361  0005F2                     __ptext14:
  2362                           	callstack 0
  2363  0005F2                     _OPA_NonInverting:
  2364                           	callstack 119
  2365  0005F2                     
  2366                           ;application.c: 54:     printf("OPA Configuration: Non-Inverting Programmable Gain Ampli
      +                          fier \r\n");
  2367  0005F2  0EED               	movlw	low STR_11
  2368  0005F4  6E46               	movwf	printf@fmt^(0+1280),c
  2369  0005F6  0EFD               	movlw	high STR_11
  2370  0005F8  6E47               	movwf	(printf@fmt+1)^(0+1280),c
  2371  0005FA  EC3E  F003         	call	_printf	;wreg free
  2372                           
  2373                           ;application.c: 55:     printf("OPA1OUT = RC2 | OPA1IN+ = RC3 \r\n\r\n");
  2374  0005FE  0EBA               	movlw	low STR_10
  2375  000600  6E46               	movwf	printf@fmt^(0+1280),c
  2376  000602  0EFF               	movlw	high STR_10
  2377  000604  6E47               	movwf	(printf@fmt+1)^(0+1280),c
  2378  000606  EC3E  F003         	call	_printf	;wreg free
  2379  00060A                     
  2380                           ;application.c: 56:     OPA1CON0bits.EN = 0;
  2381  00060A  0100               	movlb	0	; () banked
  2382  00060C  9FA3               	bcf	163,7,b	;volatile
  2383  00060E                     
  2384                           ; BSR set to: 0
  2385                           ;application.c: 57:     OPA1CON1 = 0x5F;
  2386  00060E  0E5F               	movlw	95
  2387  000610  6FA4               	movwf	164,b	;volatile
  2388  000612                     
  2389                           ; BSR set to: 0
  2390                           ;application.c: 58:     OPA1CON2 = 0x12;
  2391  000612  0E12               	movlw	18
  2392  000614  6FA5               	movwf	165,b	;volatile
  2393  000616                     
  2394                           ; BSR set to: 0
  2395                           ;application.c: 59:     OPA1CON3 = 0x81;
  2396  000616  0E81               	movlw	129
  2397  000618  6FA6               	movwf	166,b	;volatile
  2398  00061A                     
  2399                           ; BSR set to: 0
  2400                           ;application.c: 60:     OPA1CON0 = 0xC0;
  2401  00061A  0EC0               	movlw	192
  2402  00061C  6FA3               	movwf	163,b	;volatile
  2403  00061E                     
  2404                           ; BSR set to: 0
  2405  00061E  0012               	return		;funcret
  2406  000620                     __end_of_OPA_NonInverting:
  2407                           	callstack 0
  2408                           
  2409 ;; *************** function _OPA_Inverting *****************
  2410 ;; Defined at:
  2411 ;;		line 63 in file "application.c"
  2412 ;; Parameters:    Size  Location     Type
  2413 ;;		None
  2414 ;; Auto vars:     Size  Location     Type
  2415 ;;		None
  2416 ;; Return value:  Size  Location     Type
  2417 ;;                  1    wreg      void 
  2418 ;; Registers used:
  2419 ;;		wreg, fsr1l, fsr1h, fsr2l, fsr2h, status,2, status,0, tblptrl, tblptrh, tblptru, cstack
  2420 ;; Tracked objects:
  2421 ;;		On entry : 0/0
  2422 ;;		On exit  : 0/0
  2423 ;;		Unchanged: 0/0
  2424 ;; Data sizes:     COMRAM   BANK5   BANK6   BANK7   BANK8   BANK9  BANK10  BANK11  BANK12  BANK13  BANK14  BANK15  BANK1
      +6  BANK17  BANK18  BANK19  BANK20
  2425 ;;      Params:         0       0       0       0       0       0       0       0       0       0       0       0       
      +0       0       0       0       0
  2426 ;;      Locals:         0       0       0       0       0       0       0       0       0       0       0       0       
      +0       0       0       0       0
  2427 ;;      Temps:          0       0       0       0       0       0       0       0       0       0       0       0       
      +0       0       0       0       0
  2428 ;;      Totals:         0       0       0       0       0       0       0       0       0       0       0       0       
      +0       0       0       0       0
  2429 ;;Total ram usage:        0 bytes
  2430 ;; Hardware stack levels used:    1
  2431 ;; Hardware stack levels required when called:    8
  2432 ;; This function calls:
  2433 ;;		_printf
  2434 ;; This function is called by:
  2435 ;;		_main
  2436 ;; This function uses a non-reentrant model
  2437 ;;
  2438                           
  2439                           	psect	text15
  2440  000620                     __ptext15:
  2441                           	callstack 0
  2442  000620                     _OPA_Inverting:
  2443                           	callstack 119
  2444  000620                     
  2445                           ;application.c: 64:     printf("OPA Configuration: Inverting Programmable Gain Amplifier
      +                           \r\n");
  2446  000620  0E69               	movlw	low STR_13
  2447  000622  6E46               	movwf	printf@fmt^(0+1280),c
  2448  000624  0EFE               	movlw	high STR_13
  2449  000626  6E47               	movwf	(printf@fmt+1)^(0+1280),c
  2450  000628  EC3E  F003         	call	_printf	;wreg free
  2451                           
  2452                           ;application.c: 65:     printf("OPA1OUT = RC2 | OPA1IN- = RA2 \r\n\r\n");
  2453  00062C  0E97               	movlw	low STR_14
  2454  00062E  6E46               	movwf	printf@fmt^(0+1280),c
  2455  000630  0EFF               	movlw	high STR_14
  2456  000632  6E47               	movwf	(printf@fmt+1)^(0+1280),c
  2457  000634  EC3E  F003         	call	_printf	;wreg free
  2458  000638                     
  2459                           ;application.c: 66:     OPA1CON0bits.EN = 0;
  2460  000638  0100               	movlb	0	; () banked
  2461  00063A  9FA3               	bcf	163,7,b	;volatile
  2462  00063C                     
  2463                           ; BSR set to: 0
  2464                           ;application.c: 67:     OPA1CON1 = 0x5A;
  2465  00063C  0E5A               	movlw	90
  2466  00063E  6FA4               	movwf	164,b	;volatile
  2467  000640                     
  2468                           ; BSR set to: 0
  2469                           ;application.c: 68:     OPA1CON2 = 0x13;
  2470  000640  0E13               	movlw	19
  2471  000642  6FA5               	movwf	165,b	;volatile
  2472  000644                     
  2473                           ; BSR set to: 0
  2474                           ;application.c: 69:     OPA1CON3 = 0x80;
  2475  000644  0E80               	movlw	128
  2476  000646  6FA6               	movwf	166,b	;volatile
  2477  000648                     
  2478                           ; BSR set to: 0
  2479                           ;application.c: 70:     OPA1CON0 = 0xC0;
  2480  000648  0EC0               	movlw	192
  2481  00064A  6FA3               	movwf	163,b	;volatile
  2482  00064C                     
  2483                           ; BSR set to: 0
  2484  00064C  0012               	return		;funcret
  2485  00064E                     __end_of_OPA_Inverting:
  2486                           	callstack 0
  2487                           
  2488 ;; *************** function _OPA_External *****************
  2489 ;; Defined at:
  2490 ;;		line 33 in file "application.c"
  2491 ;; Parameters:    Size  Location     Type
  2492 ;;		None
  2493 ;; Auto vars:     Size  Location     Type
  2494 ;;		None
  2495 ;; Return value:  Size  Location     Type
  2496 ;;                  1    wreg      void 
  2497 ;; Registers used:
  2498 ;;		wreg, fsr1l, fsr1h, fsr2l, fsr2h, status,2, status,0, tblptrl, tblptrh, tblptru, cstack
  2499 ;; Tracked objects:
  2500 ;;		On entry : 0/0
  2501 ;;		On exit  : 0/0
  2502 ;;		Unchanged: 0/0
  2503 ;; Data sizes:     COMRAM   BANK5   BANK6   BANK7   BANK8   BANK9  BANK10  BANK11  BANK12  BANK13  BANK14  BANK15  BANK1
      +6  BANK17  BANK18  BANK19  BANK20
  2504 ;;      Params:         0       0       0       0       0       0       0       0       0       0       0       0       
      +0       0       0       0       0
  2505 ;;      Locals:         0       0       0       0       0       0       0       0       0       0       0       0       
      +0       0       0       0       0
  2506 ;;      Temps:          0       0       0       0       0       0       0       0       0       0       0       0       
      +0       0       0       0       0
  2507 ;;      Totals:         0       0       0       0       0       0       0       0       0       0       0       0       
      +0       0       0       0       0
  2508 ;;Total ram usage:        0 bytes
  2509 ;; Hardware stack levels used:    1
  2510 ;; Hardware stack levels required when called:    8
  2511 ;; This function calls:
  2512 ;;		_printf
  2513 ;; This function is called by:
  2514 ;;		_main
  2515 ;; This function uses a non-reentrant model
  2516 ;;
  2517                           
  2518                           	psect	text16
  2519  00064E                     __ptext16:
  2520                           	callstack 0
  2521  00064E                     _OPA_External:
  2522                           	callstack 119
  2523  00064E                     
  2524                           ;application.c: 34:     printf("OPA Configuration: Direct Connection to External Pins \r
      +                          \n");
  2525  00064E  0EA5               	movlw	low STR_7
  2526  000650  6E46               	movwf	printf@fmt^(0+1280),c
  2527  000652  0EFE               	movlw	high STR_7
  2528  000654  6E47               	movwf	(printf@fmt+1)^(0+1280),c
  2529  000656  EC3E  F003         	call	_printf	;wreg free
  2530                           
  2531                           ;application.c: 35:     printf("OPA1OUT = RC2 | OPA1IN+ = RC3 | OPA1IN- = RA2 \r\n\r\n")
      +                          ;
  2532  00065A  0E15               	movlw	low STR_8
  2533  00065C  6E46               	movwf	printf@fmt^(0+1280),c
  2534  00065E  0EFF               	movlw	high STR_8
  2535  000660  6E47               	movwf	(printf@fmt+1)^(0+1280),c
  2536  000662  EC3E  F003         	call	_printf	;wreg free
  2537  000666                     
  2538                           ;application.c: 36:     OPA1CON0bits.EN = 0;
  2539  000666  0100               	movlb	0	; () banked
  2540  000668  9FA3               	bcf	163,7,b	;volatile
  2541  00066A                     
  2542                           ; BSR set to: 0
  2543                           ;application.c: 37:     OPA1CON1 = 0x02;
  2544  00066A  0E02               	movlw	2
  2545  00066C  6FA4               	movwf	164,b	;volatile
  2546  00066E                     
  2547                           ; BSR set to: 0
  2548                           ;application.c: 38:     OPA1CON2 = 0x22;
  2549  00066E  0E22               	movlw	34
  2550  000670  6FA5               	movwf	165,b	;volatile
  2551  000672                     
  2552                           ; BSR set to: 0
  2553                           ;application.c: 39:     OPA1CON3 = 0x01;
  2554  000672  0E01               	movlw	1
  2555  000674  6FA6               	movwf	166,b	;volatile
  2556  000676                     
  2557                           ; BSR set to: 0
  2558                           ;application.c: 40:     OPA1CON0 = 0xC0;
  2559  000676  0EC0               	movlw	192
  2560  000678  6FA3               	movwf	163,b	;volatile
  2561  00067A                     
  2562                           ; BSR set to: 0
  2563  00067A  0012               	return		;funcret
  2564  00067C                     __end_of_OPA_External:
  2565                           	callstack 0
  2566                           
  2567 ;; *************** function _IntroSplashMessage *****************
  2568 ;; Defined at:
  2569 ;;		line 12 in file "application.c"
  2570 ;; Parameters:    Size  Location     Type
  2571 ;;		None
  2572 ;; Auto vars:     Size  Location     Type
  2573 ;;		None
  2574 ;; Return value:  Size  Location     Type
  2575 ;;                  1    wreg      void 
  2576 ;; Registers used:
  2577 ;;		wreg, fsr1l, fsr1h, fsr2l, fsr2h, status,2, status,0, tblptrl, tblptrh, tblptru, cstack
  2578 ;; Tracked objects:
  2579 ;;		On entry : 0/0
  2580 ;;		On exit  : 0/0
  2581 ;;		Unchanged: 0/0
  2582 ;; Data sizes:     COMRAM   BANK5   BANK6   BANK7   BANK8   BANK9  BANK10  BANK11  BANK12  BANK13  BANK14  BANK15  BANK1
      +6  BANK17  BANK18  BANK19  BANK20
  2583 ;;      Params:         0       0       0       0       0       0       0       0       0       0       0       0       
      +0       0       0       0       0
  2584 ;;      Locals:         0       0       0       0       0       0       0       0       0       0       0       0       
      +0       0       0       0       0
  2585 ;;      Temps:          0       0       0       0       0       0       0       0       0       0       0       0       
      +0       0       0       0       0
  2586 ;;      Totals:         0       0       0       0       0       0       0       0       0       0       0       0       
      +0       0       0       0       0
  2587 ;;Total ram usage:        0 bytes
  2588 ;; Hardware stack levels used:    1
  2589 ;; Hardware stack levels required when called:    8
  2590 ;; This function calls:
  2591 ;;		_printf
  2592 ;; This function is called by:
  2593 ;;		_main
  2594 ;; This function uses a non-reentrant model
  2595 ;;
  2596                           
  2597                           	psect	text17
  2598  00054E                     __ptext17:
  2599                           	callstack 0
  2600  00054E                     _IntroSplashMessage:
  2601                           	callstack 119
  2602  00054E                     
  2603                           ;application.c: 13:     printf("PIC18F16Q41 Curiosity Nano OPA Demo \r\n");
  2604  00054E  0E70               	movlw	low STR_2
  2605  000550  6E46               	movwf	printf@fmt^(0+1280),c
  2606  000552  0EFF               	movlw	high STR_2
  2607  000554  6E47               	movwf	(printf@fmt+1)^(0+1280),c
  2608  000556  EC3E  F003         	call	_printf	;wreg free
  2609                           
  2610                           ;application.c: 14:     printf("Select OPA mode of operation using pins RA4 and RA5.\r\n
      +                          ");
  2611  00055A  0EDE               	movlw	low STR_3
  2612  00055C  6E46               	movwf	printf@fmt^(0+1280),c
  2613  00055E  0EFE               	movlw	high STR_3
  2614  000560  6E47               	movwf	(printf@fmt+1)^(0+1280),c
  2615  000562  EC3E  F003         	call	_printf	;wreg free
  2616                           
  2617                           ;application.c: 15:     printf("Press SW0 after selecting mode of operation to reconfigu
      +                          re OPA module. \r\n");
  2618  000566  0E5D               	movlw	low STR_4
  2619  000568  6E46               	movwf	printf@fmt^(0+1280),c
  2620  00056A  0EFD               	movlw	high STR_4
  2621  00056C  6E47               	movwf	(printf@fmt+1)^(0+1280),c
  2622  00056E  EC3E  F003         	call	_printf	;wreg free
  2623                           
  2624                           ;application.c: 16:     printf("Please refer to included readme.md for more information.
      +                           \r\n");
  2625  000572  0E2D               	movlw	low STR_5
  2626  000574  6E46               	movwf	printf@fmt^(0+1280),c
  2627  000576  0EFE               	movlw	high STR_5
  2628  000578  6E47               	movwf	(printf@fmt+1)^(0+1280),c
  2629  00057A  EC3E  F003         	call	_printf	;wreg free
  2630                           
  2631                           ;application.c: 17:     printf("--------------------------------------------------------
      +                          -----------\r\n");
  2632  00057E  0EA7               	movlw	low STR_6
  2633  000580  6E46               	movwf	printf@fmt^(0+1280),c
  2634  000582  0EFD               	movlw	high STR_6
  2635  000584  6E47               	movwf	(printf@fmt+1)^(0+1280),c
  2636  000586  EC3E  F003         	call	_printf	;wreg free
  2637  00058A  0012               	return		;funcret
  2638  00058C                     __end_of_IntroSplashMessage:
  2639                           	callstack 0
  2640                           
  2641 ;; *************** function _printf *****************
  2642 ;; Defined at:
  2643 ;;		line 5 in file "C:\Program Files\Microchip\xc8\v2.20\pic\sources\c99\common\printf.c"
  2644 ;; Parameters:    Size  Location     Type
  2645 ;;  fmt             2   25[COMRAM] PTR const unsigned char 
  2646 ;;		 -> STR_14(35), STR_13(60), STR_12(35), STR_11(64), 
  2647 ;;		 -> STR_10(35), STR_9(40), STR_8(51), STR_7(57), 
  2648 ;;		 -> STR_6(70), STR_5(60), STR_4(74), STR_3(55), 
  2649 ;;		 -> STR_2(39), STR_1(34), 
  2650 ;; Auto vars:     Size  Location     Type
  2651 ;;  ap              2   29[COMRAM] PTR void [1]
  2652 ;;		 -> ?_printf(2), 
  2653 ;;  ret             2    0        int 
  2654 ;; Return value:  Size  Location     Type
  2655 ;;                  2   25[COMRAM] int 
  2656 ;; Registers used:
  2657 ;;		wreg, fsr1l, fsr1h, fsr2l, fsr2h, status,2, status,0, tblptrl, tblptrh, tblptru, cstack
  2658 ;; Tracked objects:
  2659 ;;		On entry : 0/0
  2660 ;;		On exit  : 0/0
  2661 ;;		Unchanged: 0/0
  2662 ;; Data sizes:     COMRAM   BANK5   BANK6   BANK7   BANK8   BANK9  BANK10  BANK11  BANK12  BANK13  BANK14  BANK15  BANK1
      +6  BANK17  BANK18  BANK19  BANK20
  2663 ;;      Params:         2       0       0       0       0       0       0       0       0       0       0       0       
      +0       0       0       0       0
  2664 ;;      Locals:         4       0       0       0       0       0       0       0       0       0       0       0       
      +0       0       0       0       0
  2665 ;;      Temps:          0       0       0       0       0       0       0       0       0       0       0       0       
      +0       0       0       0       0
  2666 ;;      Totals:         6       0       0       0       0       0       0       0       0       0       0       0       
      +0       0       0       0       0
  2667 ;;Total ram usage:        6 bytes
  2668 ;; Hardware stack levels used:    1
  2669 ;; Hardware stack levels required when called:    7
  2670 ;; This function calls:
  2671 ;;		_vfprintf
  2672 ;; This function is called by:
  2673 ;;		_main
  2674 ;;		_IntroSplashMessage
  2675 ;;		_OPA_External
  2676 ;;		_OPA_UnityGain
  2677 ;;		_OPA_NonInverting
  2678 ;;		_OPA_Inverting
  2679 ;; This function uses a non-reentrant model
  2680 ;;
  2681                           
  2682                           	psect	text18
  2683  00067C                     __ptext18:
  2684                           	callstack 0
  2685  00067C                     _printf:
  2686                           	callstack 120
  2687  00067C  0E48               	movlw	low (?_printf+2)
  2688  00067E  6E4A               	movwf	printf@ap^(0+1280),c
  2689  000680  0E05               	movlw	high (?_printf+2)
  2690  000682  6E4B               	movwf	(printf@ap+1)^(0+1280),c
  2691  000684  0E00               	movlw	0
  2692  000686  6E3E               	movwf	vfprintf@fp^(0+1280),c
  2693  000688  0E00               	movlw	0
  2694  00068A  6E3F               	movwf	(vfprintf@fp+1)^(0+1280),c
  2695  00068C  C546  F540         	movff	printf@fmt,vfprintf@fmt
  2696  000690  C547  F541         	movff	printf@fmt+1,vfprintf@fmt+1
  2697  000694  0E4A               	movlw	low printf@ap
  2698  000696  6E42               	movwf	vfprintf@ap^(0+1280),c
  2699  000698  0E05               	movlw	high printf@ap
  2700  00069A  6E43               	movwf	(vfprintf@ap+1)^(0+1280),c
  2701  00069C  EC1F  F002         	call	_vfprintf	;wreg free
  2702  0006A0  0012               	return		;funcret
  2703  0006A2                     __end_of_printf:
  2704                           	callstack 0
  2705                           
  2706 ;; *************** function _vfprintf *****************
  2707 ;; Defined at:
  2708 ;;		line 1368 in file "C:\Program Files\Microchip\xc8\v2.20\pic\sources\c99\common\doprnt.c"
  2709 ;; Parameters:    Size  Location     Type
  2710 ;;  fp              2   17[COMRAM] PTR struct _IO_FILE
  2711 ;;		 -> NULL(0), 
  2712 ;;  fmt             2   19[COMRAM] PTR const unsigned char 
  2713 ;;		 -> STR_14(35), STR_13(60), STR_12(35), STR_11(64), 
  2714 ;;		 -> STR_10(35), STR_9(40), STR_8(51), STR_7(57), 
  2715 ;;		 -> STR_6(70), STR_5(60), STR_4(74), STR_3(55), 
  2716 ;;		 -> STR_2(39), STR_1(34), 
  2717 ;;  ap              2   21[COMRAM] PTR PTR void 
  2718 ;;		 -> printf@ap(2), 
  2719 ;; Auto vars:     Size  Location     Type
  2720 ;;  cfmt            2   23[COMRAM] PTR unsigned char 
  2721 ;;		 -> STR_14(35), STR_13(60), STR_12(35), STR_11(64), 
  2722 ;;		 -> STR_10(35), STR_9(40), STR_8(51), STR_7(57), 
  2723 ;;		 -> STR_6(70), STR_5(60), STR_4(74), STR_3(55), 
  2724 ;;		 -> STR_2(39), STR_1(34), 
  2725 ;; Return value:  Size  Location     Type
  2726 ;;                  2   17[COMRAM] int 
  2727 ;; Registers used:
  2728 ;;		wreg, fsr1l, fsr1h, fsr2l, fsr2h, status,2, status,0, tblptrl, tblptrh, tblptru, cstack
  2729 ;; Tracked objects:
  2730 ;;		On entry : 0/0
  2731 ;;		On exit  : 0/0
  2732 ;;		Unchanged: 0/0
  2733 ;; Data sizes:     COMRAM   BANK5   BANK6   BANK7   BANK8   BANK9  BANK10  BANK11  BANK12  BANK13  BANK14  BANK15  BANK1
      +6  BANK17  BANK18  BANK19  BANK20
  2734 ;;      Params:         6       0       0       0       0       0       0       0       0       0       0       0       
      +0       0       0       0       0
  2735 ;;      Locals:         2       0       0       0       0       0       0       0       0       0       0       0       
      +0       0       0       0       0
  2736 ;;      Temps:          0       0       0       0       0       0       0       0       0       0       0       0       
      +0       0       0       0       0
  2737 ;;      Totals:         8       0       0       0       0       0       0       0       0       0       0       0       
      +0       0       0       0       0
  2738 ;;Total ram usage:        8 bytes
  2739 ;; Hardware stack levels used:    1
  2740 ;; Hardware stack levels required when called:    6
  2741 ;; This function calls:
  2742 ;;		_vfpfcnvrt
  2743 ;; This function is called by:
  2744 ;;		_printf
  2745 ;; This function uses a non-reentrant model
  2746 ;;
  2747                           
  2748                           	psect	text19
  2749  00043E                     __ptext19:
  2750                           	callstack 0
  2751  00043E                     _vfprintf:
  2752                           	callstack 120
  2753  00043E                     
  2754                           ;C:\Program Files\Microchip\xc8\v2.20\pic\sources\c99\common\doprnt.c: 1368: int vfprint
      +                          f(FILE *fp, const char *fmt, va_list ap);C:\Program Files\Microchip\xc8\v2.20\pic\source
      +                          s\c99\common\doprnt.c: 1369: {;C:\Program Files\Microchip\xc8\v2.20\pic\sources\c99\comm
      +                          on\doprnt.c: 1371:     char *cfmt;;C:\Program Files\Microchip\xc8\v2.20\pic\sources\c99\
      +                          common\doprnt.c: 1373:     cfmt = (char *)fmt;
  2755  00043E  C540  F544         	movff	vfprintf@fmt,vfprintf@cfmt
  2756  000442  C541  F545         	movff	vfprintf@fmt+1,vfprintf@cfmt+1
  2757  000446                     
  2758                           ;C:\Program Files\Microchip\xc8\v2.20\pic\sources\c99\common\doprnt.c: 1374:     nout = 
      +                          0;
  2759  000446  0E00               	movlw	0
  2760  000448  6E22               	movwf	(_nout+1)^(0+1280),c
  2761  00044A  0E00               	movlw	0
  2762  00044C  6E21               	movwf	_nout^(0+1280),c
  2763                           
  2764                           ;C:\Program Files\Microchip\xc8\v2.20\pic\sources\c99\common\doprnt.c: 1375:     while (
      +                          *cfmt) {
  2765  00044E  EF3B  F002         	goto	l1728
  2766  000452                     l1726:
  2767                           
  2768                           ;C:\Program Files\Microchip\xc8\v2.20\pic\sources\c99\common\doprnt.c: 1376:         nou
      +                          t += vfpfcnvrt(fp, &cfmt, ap);
  2769  000452  C53E  F538         	movff	vfprintf@fp,vfpfcnvrt@fp
  2770  000456  C53F  F539         	movff	vfprintf@fp+1,vfpfcnvrt@fp+1
  2771  00045A  0E44               	movlw	low vfprintf@cfmt
  2772  00045C  6E3A               	movwf	vfpfcnvrt@fmt^(0+1280),c
  2773  00045E  0E05               	movlw	high vfprintf@cfmt
  2774  000460  6E3B               	movwf	(vfpfcnvrt@fmt+1)^(0+1280),c
  2775  000462  C542  F53C         	movff	vfprintf@ap,vfpfcnvrt@ap
  2776  000466  C543  F53D         	movff	vfprintf@ap+1,vfpfcnvrt@ap+1
  2777  00046A  ECDA  F000         	call	_vfpfcnvrt	;wreg free
  2778  00046E  5038               	movf	?_vfpfcnvrt^(0+1280),w,c
  2779  000470  2621               	addwf	_nout^(0+1280),f,c
  2780  000472  5039               	movf	(?_vfpfcnvrt+1)^(0+1280),w,c
  2781  000474  2222               	addwfc	(_nout+1)^(0+1280),f,c
  2782  000476                     l1728:
  2783                           
  2784                           ;C:\Program Files\Microchip\xc8\v2.20\pic\sources\c99\common\doprnt.c: 1375:     while (
      +                          *cfmt) {
  2785  000476  0061  F510  F4F6   	movff	vfprintf@cfmt,tblptrl
  2786  00047C  0061  F514  F4F7   	movff	vfprintf@cfmt+1,tblptrh
  2787  000482                     	if	1	;Program memory is < 0x10000, tblptru is always zero
  2788  000482  6AF8               	clrf	tblptru,c
  2789  000484                     	endif
  2790  000484                     	if	0	;tblptru may be non-zero
  2791  000484                     	endif
  2792  000484  0008               	tblrd		*
  2793  000486  50F5               	movf	tablat,w,c
  2794  000488  0900               	iorlw	0
  2795  00048A  A4D8               	btfss	status,2,c
  2796  00048C  EF4A  F002         	goto	u411
  2797  000490  EF4C  F002         	goto	u410
  2798  000494                     u411:
  2799  000494  EF29  F002         	goto	l1726
  2800  000498                     u410:
  2801  000498                     
  2802                           ;C:\Program Files\Microchip\xc8\v2.20\pic\sources\c99\common\doprnt.c: 1378:     return 
      +                          nout;
  2803  000498  C521  F53E         	movff	_nout,?_vfprintf
  2804  00049C  C522  F53F         	movff	_nout+1,?_vfprintf+1
  2805  0004A0  0012               	return		;funcret
  2806  0004A2                     __end_of_vfprintf:
  2807                           	callstack 0
  2808                           
  2809 ;; *************** function _vfpfcnvrt *****************
  2810 ;; Defined at:
  2811 ;;		line 670 in file "C:\Program Files\Microchip\xc8\v2.20\pic\sources\c99\common\doprnt.c"
  2812 ;; Parameters:    Size  Location     Type
  2813 ;;  fp              2   11[COMRAM] PTR struct _IO_FILE
  2814 ;;		 -> NULL(0), 
  2815 ;;  fmt             2   13[COMRAM] PTR PTR unsigned char 
  2816 ;;		 -> vfprintf@cfmt(2), 
  2817 ;;  ap              2   15[COMRAM] PTR PTR void 
  2818 ;;		 -> printf@ap(2), 
  2819 ;; Auto vars:     Size  Location     Type
  2820 ;;  llu             8    0        unsigned long long 
  2821 ;;  ll              8    0        long long 
  2822 ;;  f               4    0        long long 
  2823 ;;  vp              3    0        PTR void 
  2824 ;;  ct              3    0        unsigned char [3]
  2825 ;;  cp              3    0        PTR unsigned char 
  2826 ;;  i               2    0        int 
  2827 ;;  done            2    0        int 
  2828 ;;  c               1    0        unsigned char 
  2829 ;; Return value:  Size  Location     Type
  2830 ;;                  2   11[COMRAM] int 
  2831 ;; Registers used:
  2832 ;;		wreg, fsr1l, fsr1h, fsr2l, fsr2h, status,2, status,0, tblptrl, tblptrh, tblptru, cstack
  2833 ;; Tracked objects:
  2834 ;;		On entry : 0/0
  2835 ;;		On exit  : 0/0
  2836 ;;		Unchanged: 0/0
  2837 ;; Data sizes:     COMRAM   BANK5   BANK6   BANK7   BANK8   BANK9  BANK10  BANK11  BANK12  BANK13  BANK14  BANK15  BANK1
      +6  BANK17  BANK18  BANK19  BANK20
  2838 ;;      Params:         6       0       0       0       0       0       0       0       0       0       0       0       
      +0       0       0       0       0
  2839 ;;      Locals:         0       0       0       0       0       0       0       0       0       0       0       0       
      +0       0       0       0       0
  2840 ;;      Temps:          0       0       0       0       0       0       0       0       0       0       0       0       
      +0       0       0       0       0
  2841 ;;      Totals:         6       0       0       0       0       0       0       0       0       0       0       0       
      +0       0       0       0       0
  2842 ;;Total ram usage:        6 bytes
  2843 ;; Hardware stack levels used:    1
  2844 ;; Hardware stack levels required when called:    5
  2845 ;; This function calls:
  2846 ;;		_fputc
  2847 ;; This function is called by:
  2848 ;;		_vfprintf
  2849 ;; This function uses a non-reentrant model
  2850 ;;
  2851                           
  2852                           	psect	text20
  2853  0001B4                     __ptext20:
  2854                           	callstack 0
  2855  0001B4                     _vfpfcnvrt:
  2856                           	callstack 120
  2857  0001B4                     
  2858                           ;C:\Program Files\Microchip\xc8\v2.20\pic\sources\c99\common\doprnt.c: 670: static int v
      +                          fpfcnvrt(FILE *fp, char *fmt[], va_list ap);C:\Program Files\Microchip\xc8\v2.20\pic\sou
      +                          rces\c99\common\doprnt.c: 671: {;C:\Program Files\Microchip\xc8\v2.20\pic\sources\c99\co
      +                          mmon\doprnt.c: 672:     char c, *cp, ct[3];;C:\Program Files\Microchip\xc8\v2.20\pic\sou
      +                          rces\c99\common\doprnt.c: 673:     int done, i;;C:\Program Files\Microchip\xc8\v2.20\pic
      +                          \sources\c99\common\doprnt.c: 674:     long long ll;;C:\Program Files\Microchip\xc8\v2.2
      +                          0\pic\sources\c99\common\doprnt.c: 675:     unsigned long long llu;
  2859  0001B4  0061  F4E8  F4D9   	movff	vfpfcnvrt@fmt,fsr2l
  2860  0001BA  0061  F4EC  F4DA   	movff	vfpfcnvrt@fmt+1,fsr2h
  2861  0001C0  C4DE F4F6          	movff	postinc2,tblptrl
  2862  0001C4  C4DD F4F7          	movff	postdec2,tblptrh
  2863  0001C8                     	if	1	;Program memory is < 0x10000, tblptru is always zero
  2864  0001C8  6AF8               	clrf	tblptru,c
  2865  0001CA                     	endif
  2866  0001CA                     	if	0	;tblptru may be non-zero
  2867  0001CA                     	endif
  2868  0001CA  0008               	tblrd		*
  2869  0001CC  50F5               	movf	tablat,w,c
  2870  0001CE  0A25               	xorlw	37
  2871  0001D0  A4D8               	btfss	status,2,c
  2872  0001D2  EFED  F000         	goto	u391
  2873  0001D6  EFEF  F000         	goto	u390
  2874  0001DA                     u391:
  2875  0001DA  EF3F  F001         	goto	l1708
  2876  0001DE                     u390:
  2877  0001DE                     
  2878                           ;C:\Program Files\Microchip\xc8\v2.20\pic\sources\c99\common\doprnt.c: 681:         ++*f
      +                          mt;
  2879  0001DE  0061  F4E8  F4D9   	movff	vfpfcnvrt@fmt,fsr2l
  2880  0001E4  0061  F4EC  F4DA   	movff	vfpfcnvrt@fmt+1,fsr2h
  2881  0001EA  2ADE               	incf	postinc2,f,c
  2882  0001EC  0E00               	movlw	0
  2883  0001EE  22DD               	addwfc	postdec2,f,c
  2884  0001F0                     
  2885                           ;C:\Program Files\Microchip\xc8\v2.20\pic\sources\c99\common\doprnt.c: 683:         flag
      +                          s = width = 0;
  2886  0001F0  0E00               	movlw	0
  2887  0001F2  6E24               	movwf	(_width+1)^(0+1280),c
  2888  0001F4  0E00               	movlw	0
  2889  0001F6  6E23               	movwf	_width^(0+1280),c
  2890  0001F8  C523  F527         	movff	_width,_flags
  2891  0001FC  C524  F528         	movff	_width+1,_flags+1
  2892  000200                     
  2893                           ;C:\Program Files\Microchip\xc8\v2.20\pic\sources\c99\common\doprnt.c: 684:         prec
      +                           = -1;
  2894  000200  6825               	setf	_prec^(0+1280),c
  2895  000202  6826               	setf	(_prec+1)^(0+1280),c
  2896  000204                     
  2897                           ;C:\Program Files\Microchip\xc8\v2.20\pic\sources\c99\common\doprnt.c: 1350:         if 
      +                          ((*fmt)[0] == '%') {
  2898  000204  0061  F4E8  F4D9   	movff	vfpfcnvrt@fmt,fsr2l
  2899  00020A  0061  F4EC  F4DA   	movff	vfpfcnvrt@fmt+1,fsr2h
  2900  000210  C4DE F4F6          	movff	postinc2,tblptrl
  2901  000214  C4DD F4F7          	movff	postdec2,tblptrh
  2902  000218                     	if	1	;Program memory is < 0x10000, tblptru is always zero
  2903  000218  6AF8               	clrf	tblptru,c
  2904  00021A                     	endif
  2905  00021A                     	if	0	;tblptru may be non-zero
  2906  00021A                     	endif
  2907  00021A  0008               	tblrd		*
  2908  00021C  50F5               	movf	tablat,w,c
  2909  00021E  0A25               	xorlw	37
  2910  000220  A4D8               	btfss	status,2,c
  2911  000222  EF15  F001         	goto	u401
  2912  000226  EF17  F001         	goto	u400
  2913  00022A                     u401:
  2914  00022A  EF30  F001         	goto	l1702
  2915  00022E                     u400:
  2916  00022E                     
  2917                           ;C:\Program Files\Microchip\xc8\v2.20\pic\sources\c99\common\doprnt.c: 1351:            
      +                           ++*fmt;
  2918  00022E  0061  F4E8  F4D9   	movff	vfpfcnvrt@fmt,fsr2l
  2919  000234  0061  F4EC  F4DA   	movff	vfpfcnvrt@fmt+1,fsr2h
  2920  00023A  2ADE               	incf	postinc2,f,c
  2921  00023C  0E00               	movlw	0
  2922  00023E  22DD               	addwfc	postdec2,f,c
  2923  000240                     
  2924                           ;C:\Program Files\Microchip\xc8\v2.20\pic\sources\c99\common\doprnt.c: 1352:            
      +                           fputc((int)'%', fp);
  2925  000240  0E00               	movlw	0
  2926  000242  6E30               	movwf	(fputc@c+1)^(0+1280),c
  2927  000244  0E25               	movlw	37
  2928  000246  6E2F               	movwf	fputc@c^(0+1280),c
  2929  000248  C538  F531         	movff	vfpfcnvrt@fp,fputc@fp
  2930  00024C  C539  F532         	movff	vfpfcnvrt@fp+1,fputc@fp+1
  2931  000250  EC60  F001         	call	_fputc	;wreg free
  2932  000254                     l1698:
  2933                           
  2934                           ;C:\Program Files\Microchip\xc8\v2.20\pic\sources\c99\common\doprnt.c: 1353:            
      +                           return 1;
  2935  000254  0E00               	movlw	0
  2936  000256  6E39               	movwf	(?_vfpfcnvrt+1)^(0+1280),c
  2937  000258  0E01               	movlw	1
  2938  00025A  6E38               	movwf	?_vfpfcnvrt^(0+1280),c
  2939  00025C  EF5F  F001         	goto	l1232
  2940  000260                     l1702:
  2941                           
  2942                           ;C:\Program Files\Microchip\xc8\v2.20\pic\sources\c99\common\doprnt.c: 1357:         ++*
      +                          fmt;
  2943  000260  0061  F4E8  F4D9   	movff	vfpfcnvrt@fmt,fsr2l
  2944  000266  0061  F4EC  F4DA   	movff	vfpfcnvrt@fmt+1,fsr2h
  2945  00026C  2ADE               	incf	postinc2,f,c
  2946  00026E  0E00               	movlw	0
  2947  000270  22DD               	addwfc	postdec2,f,c
  2948  000272                     
  2949                           ;C:\Program Files\Microchip\xc8\v2.20\pic\sources\c99\common\doprnt.c: 1358:         ret
      +                          urn 0;
  2950  000272  0E00               	movlw	0
  2951  000274  6E39               	movwf	(?_vfpfcnvrt+1)^(0+1280),c
  2952  000276  0E00               	movlw	0
  2953  000278  6E38               	movwf	?_vfpfcnvrt^(0+1280),c
  2954  00027A  EF5F  F001         	goto	l1232
  2955  00027E                     l1708:
  2956                           
  2957                           ;C:\Program Files\Microchip\xc8\v2.20\pic\sources\c99\common\doprnt.c: 1362:     fputc((
      +                          int)(*fmt)[0], fp);
  2958  00027E  0061  F4E8  F4D9   	movff	vfpfcnvrt@fmt,fsr2l
  2959  000284  0061  F4EC  F4DA   	movff	vfpfcnvrt@fmt+1,fsr2h
  2960  00028A  C4DE F4F6          	movff	postinc2,tblptrl
  2961  00028E  C4DD F4F7          	movff	postdec2,tblptrh
  2962  000292                     	if	1	;Program memory is < 0x10000, tblptru is always zero
  2963  000292  6AF8               	clrf	tblptru,c
  2964  000294                     	endif
  2965  000294                     	if	0	;tblptru may be non-zero
  2966  000294                     	endif
  2967  000294  0008               	tblrd		*
  2968  000296  50F5               	movf	tablat,w,c
  2969  000298  6E2F               	movwf	fputc@c^(0+1280),c
  2970  00029A  6A30               	clrf	(fputc@c+1)^(0+1280),c
  2971  00029C  C538  F531         	movff	vfpfcnvrt@fp,fputc@fp
  2972  0002A0  C539  F532         	movff	vfpfcnvrt@fp+1,fputc@fp+1
  2973  0002A4  EC60  F001         	call	_fputc	;wreg free
  2974  0002A8                     
  2975                           ;C:\Program Files\Microchip\xc8\v2.20\pic\sources\c99\common\doprnt.c: 1363:     ++*fmt;
  2976  0002A8  0061  F4E8  F4D9   	movff	vfpfcnvrt@fmt,fsr2l
  2977  0002AE  0061  F4EC  F4DA   	movff	vfpfcnvrt@fmt+1,fsr2h
  2978  0002B4  2ADE               	incf	postinc2,f,c
  2979  0002B6  0E00               	movlw	0
  2980  0002B8  22DD               	addwfc	postdec2,f,c
  2981  0002BA  EF2A  F001         	goto	l1698
  2982  0002BE                     l1232:
  2983  0002BE  0012               	return		;funcret
  2984  0002C0                     __end_of_vfpfcnvrt:
  2985                           	callstack 0
  2986                           
  2987 ;; *************** function _fputc *****************
  2988 ;; Defined at:
  2989 ;;		line 8 in file "C:\Program Files\Microchip\xc8\v2.20\pic\sources\c99\common\nf_fputc.c"
  2990 ;; Parameters:    Size  Location     Type
  2991 ;;  c               2    2[COMRAM] int 
  2992 ;;  fp              2    4[COMRAM] PTR struct _IO_FILE
  2993 ;;		 -> NULL(0), 
  2994 ;; Auto vars:     Size  Location     Type
  2995 ;;		None
  2996 ;; Return value:  Size  Location     Type
  2997 ;;                  2    2[COMRAM] int 
  2998 ;; Registers used:
  2999 ;;		wreg, fsr1l, fsr1h, fsr2l, fsr2h, status,2, status,0, cstack
  3000 ;; Tracked objects:
  3001 ;;		On entry : 0/0
  3002 ;;		On exit  : 0/0
  3003 ;;		Unchanged: 0/0
  3004 ;; Data sizes:     COMRAM   BANK5   BANK6   BANK7   BANK8   BANK9  BANK10  BANK11  BANK12  BANK13  BANK14  BANK15  BANK1
      +6  BANK17  BANK18  BANK19  BANK20
  3005 ;;      Params:         4       0       0       0       0       0       0       0       0       0       0       0       
      +0       0       0       0       0
  3006 ;;      Locals:         0       0       0       0       0       0       0       0       0       0       0       0       
      +0       0       0       0       0
  3007 ;;      Temps:          5       0       0       0       0       0       0       0       0       0       0       0       
      +0       0       0       0       0
  3008 ;;      Totals:         9       0       0       0       0       0       0       0       0       0       0       0       
      +0       0       0       0       0
  3009 ;;Total ram usage:        9 bytes
  3010 ;; Hardware stack levels used:    1
  3011 ;; Hardware stack levels required when called:    4
  3012 ;; This function calls:
  3013 ;;		_putch
  3014 ;; This function is called by:
  3015 ;;		_vfpfcnvrt
  3016 ;; This function uses a non-reentrant model
  3017 ;;
  3018                           
  3019                           	psect	text21
  3020  0002C0                     __ptext21:
  3021                           	callstack 0
  3022  0002C0                     _fputc:
  3023                           	callstack 120
  3024  0002C0  5031               	movf	fputc@fp^(0+1280),w,c
  3025  0002C2  1032               	iorwf	(fputc@fp+1)^(0+1280),w,c
  3026  0002C4  B4D8               	btfsc	status,2,c
  3027  0002C6  EF67  F001         	goto	u351
  3028  0002CA  EF69  F001         	goto	u350
  3029  0002CE                     u351:
  3030  0002CE  EF72  F001         	goto	l1674
  3031  0002D2                     u350:
  3032  0002D2  5031               	movf	fputc@fp^(0+1280),w,c
  3033  0002D4  1032               	iorwf	(fputc@fp+1)^(0+1280),w,c
  3034  0002D6  A4D8               	btfss	status,2,c
  3035  0002D8  EF70  F001         	goto	u361
  3036  0002DC  EF72  F001         	goto	u360
  3037  0002E0                     u361:
  3038  0002E0  EF77  F001         	goto	l1676
  3039  0002E4                     u360:
  3040  0002E4                     l1674:
  3041  0002E4  502F               	movf	fputc@c^(0+1280),w,c
  3042  0002E6  ECD7  F003         	call	_putch
  3043  0002EA  EFAA  F001         	goto	l1250
  3044  0002EE                     l1676:
  3045  0002EE  EE20 F004          	lfsr	2,4
  3046  0002F2  5031               	movf	fputc@fp^(0+1280),w,c
  3047  0002F4  26D9               	addwf	fsr2l,f,c
  3048  0002F6  5032               	movf	(fputc@fp+1)^(0+1280),w,c
  3049  0002F8  22DA               	addwfc	fsr2h,f,c
  3050  0002FA  50DE               	movf	postinc2,w,c
  3051  0002FC  10DE               	iorwf	postinc2,w,c
  3052  0002FE  B4D8               	btfsc	status,2,c
  3053  000300  EF84  F001         	goto	u371
  3054  000304  EF86  F001         	goto	u370
  3055  000308                     u371:
  3056  000308  EFA1  F001         	goto	l1680
  3057  00030C                     u370:
  3058  00030C  EE20 F004          	lfsr	2,4
  3059  000310  5031               	movf	fputc@fp^(0+1280),w,c
  3060  000312  26D9               	addwf	fsr2l,f,c
  3061  000314  5032               	movf	(fputc@fp+1)^(0+1280),w,c
  3062  000316  22DA               	addwfc	fsr2h,f,c
  3063  000318  EE10 F002          	lfsr	1,2
  3064  00031C  5031               	movf	fputc@fp^(0+1280),w,c
  3065  00031E  26E1               	addwf	fsr1l,f,c
  3066  000320  5032               	movf	(fputc@fp+1)^(0+1280),w,c
  3067  000322  22E2               	addwfc	fsr1h,f,c
  3068  000324  50DE               	movf	postinc2,w,c
  3069  000326  5CE6               	subwf	postinc1,w,c
  3070  000328  50E6               	movf	postinc1,w,c
  3071  00032A  0A80               	xorlw	128
  3072  00032C  6E37               	movwf	(??_fputc+4)^(0+1280),c
  3073  00032E  50DE               	movf	postinc2,w,c
  3074  000330  0A80               	xorlw	128
  3075  000332  5837               	subwfb	(??_fputc+4)^(0+1280),w,c
  3076  000334  B0D8               	btfsc	status,0,c
  3077  000336  EF9F  F001         	goto	u381
  3078  00033A  EFA1  F001         	goto	u380
  3079  00033E                     u381:
  3080  00033E  EFAA  F001         	goto	l1250
  3081  000342                     u380:
  3082  000342                     l1680:
  3083  000342  EE20 F002          	lfsr	2,2
  3084  000346  5031               	movf	fputc@fp^(0+1280),w,c
  3085  000348  26D9               	addwf	fsr2l,f,c
  3086  00034A  5032               	movf	(fputc@fp+1)^(0+1280),w,c
  3087  00034C  22DA               	addwfc	fsr2h,f,c
  3088  00034E  2ADE               	incf	postinc2,f,c
  3089  000350  0E00               	movlw	0
  3090  000352  22DD               	addwfc	postdec2,f,c
  3091  000354                     l1250:
  3092  000354  0012               	return		;funcret
  3093  000356                     __end_of_fputc:
  3094                           	callstack 0
  3095                           
  3096 ;; *************** function _putch *****************
  3097 ;; Defined at:
  3098 ;;		line 184 in file "mcc_generated_files/uart1.c"
  3099 ;; Parameters:    Size  Location     Type
  3100 ;;  txData          1    wreg     unsigned char 
  3101 ;; Auto vars:     Size  Location     Type
  3102 ;;  txData          1    1[COMRAM] unsigned char 
  3103 ;; Return value:  Size  Location     Type
  3104 ;;                  1    wreg      void 
  3105 ;; Registers used:
  3106 ;;		wreg, status,2, cstack
  3107 ;; Tracked objects:
  3108 ;;		On entry : 0/0
  3109 ;;		On exit  : 0/0
  3110 ;;		Unchanged: 0/0
  3111 ;; Data sizes:     COMRAM   BANK5   BANK6   BANK7   BANK8   BANK9  BANK10  BANK11  BANK12  BANK13  BANK14  BANK15  BANK1
      +6  BANK17  BANK18  BANK19  BANK20
  3112 ;;      Params:         0       0       0       0       0       0       0       0       0       0       0       0       
      +0       0       0       0       0
  3113 ;;      Locals:         1       0       0       0       0       0       0       0       0       0       0       0       
      +0       0       0       0       0
  3114 ;;      Temps:          0       0       0       0       0       0       0       0       0       0       0       0       
      +0       0       0       0       0
  3115 ;;      Totals:         1       0       0       0       0       0       0       0       0       0       0       0       
      +0       0       0       0       0
  3116 ;;Total ram usage:        1 bytes
  3117 ;; Hardware stack levels used:    1
  3118 ;; Hardware stack levels required when called:    3
  3119 ;; This function calls:
  3120 ;;		_UART1_Write
  3121 ;; This function is called by:
  3122 ;;		_fputc
  3123 ;; This function uses a non-reentrant model
  3124 ;;
  3125                           
  3126                           	psect	text22
  3127  0007AE                     __ptext22:
  3128                           	callstack 0
  3129  0007AE                     _putch:
  3130                           	callstack 120
  3131                           
  3132                           ;incstack = 0
  3133                           ;putch@txData stored from wreg
  3134  0007AE  6E2E               	movwf	putch@txData^(0+1280),c
  3135  0007B0                     
  3136                           ;mcc_generated_files/uart1.c: 184: void putch(char txData);mcc_generated_files/uart1.c: 
      +                          185: {;mcc_generated_files/uart1.c: 186:     UART1_Write(txData);
  3137  0007B0  502E               	movf	putch@txData^(0+1280),w,c
  3138  0007B2  ECBC  F003         	call	_UART1_Write
  3139  0007B6  0012               	return		;funcret
  3140  0007B8                     __end_of_putch:
  3141                           	callstack 0
  3142                           
  3143 ;; *************** function _UART1_Write *****************
  3144 ;; Defined at:
  3145 ;;		line 170 in file "mcc_generated_files/uart1.c"
  3146 ;; Parameters:    Size  Location     Type
  3147 ;;  txData          1    wreg     unsigned char 
  3148 ;; Auto vars:     Size  Location     Type
  3149 ;;  txData          1    0[COMRAM] unsigned char 
  3150 ;; Return value:  Size  Location     Type
  3151 ;;                  1    wreg      void 
  3152 ;; Registers used:
  3153 ;;		wreg
  3154 ;; Tracked objects:
  3155 ;;		On entry : 0/0
  3156 ;;		On exit  : 0/0
  3157 ;;		Unchanged: 0/0
  3158 ;; Data sizes:     COMRAM   BANK5   BANK6   BANK7   BANK8   BANK9  BANK10  BANK11  BANK12  BANK13  BANK14  BANK15  BANK1
      +6  BANK17  BANK18  BANK19  BANK20
  3159 ;;      Params:         0       0       0       0       0       0       0       0       0       0       0       0       
      +0       0       0       0       0
  3160 ;;      Locals:         1       0       0       0       0       0       0       0       0       0       0       0       
      +0       0       0       0       0
  3161 ;;      Temps:          0       0       0       0       0       0       0       0       0       0       0       0       
      +0       0       0       0       0
  3162 ;;      Totals:         1       0       0       0       0       0       0       0       0       0       0       0       
      +0       0       0       0       0
  3163 ;;Total ram usage:        1 bytes
  3164 ;; Hardware stack levels used:    1
  3165 ;; Hardware stack levels required when called:    2
  3166 ;; This function calls:
  3167 ;;		Nothing
  3168 ;; This function is called by:
  3169 ;;		_putch
  3170 ;; This function uses a non-reentrant model
  3171 ;;
  3172                           
  3173                           	psect	text23
  3174  000778                     __ptext23:
  3175                           	callstack 0
  3176  000778                     _UART1_Write:
  3177                           	callstack 120
  3178                           
  3179                           ;incstack = 0
  3180                           ;UART1_Write@txData stored from wreg
  3181  000778  6E2D               	movwf	UART1_Write@txData^(0+1280),c
  3182  00077A                     l263:
  3183                           
  3184                           ;mcc_generated_files/uart1.c: 172:     while(0 == PIR4bits.U1TXIF)
  3185  00077A  A2B7               	btfss	183,1,c	;volatile
  3186  00077C  EFC2  F003         	goto	u11
  3187  000780  EFC4  F003         	goto	u10
  3188  000784                     u11:
  3189  000784  EFBD  F003         	goto	l263
  3190  000788                     u10:
  3191  000788                     
  3192                           ;mcc_generated_files/uart1.c: 176:     U1TXB = txData;
  3193  000788  0061  F4B4  F2A3   	movff	UART1_Write@txData,675	;volatile
  3194  00078E  0012               	return		;funcret
  3195  000790                     __end_of_UART1_Write:
  3196                           	callstack 0
  3197                           
  3198 ;; *************** function _GetOpampConfig *****************
  3199 ;; Defined at:
  3200 ;;		line 20 in file "application.c"
  3201 ;; Parameters:    Size  Location     Type
  3202 ;;		None
  3203 ;; Auto vars:     Size  Location     Type
  3204 ;;		None
  3205 ;; Return value:  Size  Location     Type
  3206 ;;                  1    wreg      void 
  3207 ;; Registers used:
  3208 ;;		wreg, status,2, status,0
  3209 ;; Tracked objects:
  3210 ;;		On entry : 0/0
  3211 ;;		On exit  : 0/0
  3212 ;;		Unchanged: 0/0
  3213 ;; Data sizes:     COMRAM   BANK5   BANK6   BANK7   BANK8   BANK9  BANK10  BANK11  BANK12  BANK13  BANK14  BANK15  BANK1
      +6  BANK17  BANK18  BANK19  BANK20
  3214 ;;      Params:         0       0       0       0       0       0       0       0       0       0       0       0       
      +0       0       0       0       0
  3215 ;;      Locals:         0       0       0       0       0       0       0       0       0       0       0       0       
      +0       0       0       0       0
  3216 ;;      Temps:          4       0       0       0       0       0       0       0       0       0       0       0       
      +0       0       0       0       0
  3217 ;;      Totals:         4       0       0       0       0       0       0       0       0       0       0       0       
      +0       0       0       0       0
  3218 ;;Total ram usage:        4 bytes
  3219 ;; Hardware stack levels used:    1
  3220 ;; Hardware stack levels required when called:    2
  3221 ;; This function calls:
  3222 ;;		Nothing
  3223 ;; This function is called by:
  3224 ;;		_main
  3225 ;; This function uses a non-reentrant model
  3226 ;;
  3227                           
  3228                           	psect	text24
  3229  000504                     __ptext24:
  3230                           	callstack 0
  3231  000504                     _GetOpampConfig:
  3232                           	callstack 125
  3233  000504                     
  3234                           ;application.c: 21:     opa_config = ((PORTAbits.RA5 << 1)+(PORTAbits.RA4)) + 1;
  3235  000504  B8CE               	btfsc	206,4,c	;volatile
  3236  000506  EF87  F002         	goto	u161
  3237  00050A  EF8B  F002         	goto	u160
  3238  00050E                     u161:
  3239  00050E  6A2D               	clrf	??_GetOpampConfig^(0+1280),c
  3240  000510  2A2D               	incf	??_GetOpampConfig^(0+1280),f,c
  3241  000512  EF8C  F002         	goto	u168
  3242  000516                     u160:
  3243  000516  6A2D               	clrf	??_GetOpampConfig^(0+1280),c
  3244  000518                     u168:
  3245  000518  502D               	movf	??_GetOpampConfig^(0+1280),w,c
  3246  00051A  BACE               	btfsc	206,5,c	;volatile
  3247  00051C  EF92  F002         	goto	u171
  3248  000520  EF96  F002         	goto	u170
  3249  000524                     u171:
  3250  000524  6A2E               	clrf	(??_GetOpampConfig+1)^(0+1280),c
  3251  000526  2A2E               	incf	(??_GetOpampConfig+1)^(0+1280),f,c
  3252  000528  EF97  F002         	goto	u178
  3253  00052C                     u170:
  3254  00052C  6A2E               	clrf	(??_GetOpampConfig+1)^(0+1280),c
  3255  00052E                     u178:
  3256  00052E  C52E  F52F         	movff	??_GetOpampConfig+1,??_GetOpampConfig+2
  3257  000532  6A30               	clrf	(??_GetOpampConfig+3)^(0+1280),c
  3258  000534  90D8               	bcf	status,0,c
  3259  000536  362F               	rlcf	(??_GetOpampConfig+2)^(0+1280),f,c
  3260  000538  3630               	rlcf	(??_GetOpampConfig+3)^(0+1280),f,c
  3261  00053A  262F               	addwf	(??_GetOpampConfig+2)^(0+1280),f,c
  3262  00053C  0E00               	movlw	0
  3263  00053E  2230               	addwfc	(??_GetOpampConfig+3)^(0+1280),f,c
  3264  000540  0E01               	movlw	1
  3265  000542  242F               	addwf	(??_GetOpampConfig+2)^(0+1280),w,c
  3266  000544  6E4E               	movwf	_opa_config^(0+1280),c
  3267  000546  0E00               	movlw	0
  3268  000548  2030               	addwfc	(??_GetOpampConfig+3)^(0+1280),w,c
  3269  00054A  6E4F               	movwf	(_opa_config+1)^(0+1280),c
  3270  00054C  0012               	return		;funcret
  3271  00054E                     __end_of_GetOpampConfig:
  3272                           	callstack 0
  3273                           
  3274 ;; *************** function _BlinkLED *****************
  3275 ;; Defined at:
  3276 ;;		line 24 in file "application.c"
  3277 ;; Parameters:    Size  Location     Type
  3278 ;;  cnt             1    wreg     char 
  3279 ;; Auto vars:     Size  Location     Type
  3280 ;;  cnt             1    2[COMRAM] char 
  3281 ;;  i               2    3[COMRAM] int 
  3282 ;; Return value:  Size  Location     Type
  3283 ;;                  1    wreg      void 
  3284 ;; Registers used:
  3285 ;;		wreg, status,2, status,0
  3286 ;; Tracked objects:
  3287 ;;		On entry : 0/0
  3288 ;;		On exit  : 0/0
  3289 ;;		Unchanged: 0/0
  3290 ;; Data sizes:     COMRAM   BANK5   BANK6   BANK7   BANK8   BANK9  BANK10  BANK11  BANK12  BANK13  BANK14  BANK15  BANK1
      +6  BANK17  BANK18  BANK19  BANK20
  3291 ;;      Params:         0       0       0       0       0       0       0       0       0       0       0       0       
      +0       0       0       0       0
  3292 ;;      Locals:         3       0       0       0       0       0       0       0       0       0       0       0       
      +0       0       0       0       0
  3293 ;;      Temps:          2       0       0       0       0       0       0       0       0       0       0       0       
      +0       0       0       0       0
  3294 ;;      Totals:         5       0       0       0       0       0       0       0       0       0       0       0       
      +0       0       0       0       0
  3295 ;;Total ram usage:        5 bytes
  3296 ;; Hardware stack levels used:    1
  3297 ;; Hardware stack levels required when called:    2
  3298 ;; This function calls:
  3299 ;;		Nothing
  3300 ;; This function is called by:
  3301 ;;		_main
  3302 ;; This function uses a non-reentrant model
  3303 ;;
  3304                           
  3305                           	psect	text25
  3306  000356                     __ptext25:
  3307                           	callstack 0
  3308  000356                     _BlinkLED:
  3309                           	callstack 125
  3310                           
  3311                           ;incstack = 0
  3312                           ;BlinkLED@cnt stored from wreg
  3313  000356  6E2F               	movwf	BlinkLED@cnt^(0+1280),c
  3314  000358                     
  3315                           ;application.c: 25:     for (int i = cnt; i > 0; i--) {
  3316  000358  502F               	movf	BlinkLED@cnt^(0+1280),w,c
  3317  00035A  6E30               	movwf	BlinkLED@i^(0+1280),c
  3318  00035C  6A31               	clrf	(BlinkLED@i+1)^(0+1280),c
  3319  00035E  BE30               	btfsc	BlinkLED@i^(0+1280),7,c
  3320  000360  0631               	decf	(BlinkLED@i+1)^(0+1280),f,c
  3321  000362  BE31               	btfsc	(BlinkLED@i+1)^(0+1280),7,c
  3322  000364  EFBE  F001         	goto	u180
  3323  000368  5031               	movf	(BlinkLED@i+1)^(0+1280),w,c
  3324  00036A  E106               	bnz	u181
  3325  00036C  0430               	decf	BlinkLED@i^(0+1280),w,c
  3326  00036E  B0D8               	btfsc	status,0,c
  3327  000370  EFBC  F001         	goto	u181
  3328  000374  EFBE  F001         	goto	u180
  3329  000378                     u181:
  3330  000378  EFC0  F001         	goto	l376
  3331  00037C                     u180:
  3332  00037C  EFEA  F001         	goto	l378
  3333  000380                     l376:
  3334                           
  3335                           ;application.c: 26:         LATCbits.LATC1 = 0;
  3336  000380  92C0               	bcf	192,1,c	;volatile
  3337  000382                     
  3338                           ;application.c: 27:         _delay((unsigned long)((250)*(64000000/4000.0)));
  3339  000382  0E15               	movlw	21
  3340  000384  6E2E               	movwf	(??_BlinkLED+1)^(0+1280),c
  3341  000386  0E4B               	movlw	75
  3342  000388  6E2D               	movwf	??_BlinkLED^(0+1280),c
  3343  00038A  0EBE               	movlw	190
  3344  00038C                     u507:
  3345  00038C  2EE8               	decfsz	wreg,f,c
  3346  00038E  D7FE               	bra	u507
  3347  000390  2E2D               	decfsz	??_BlinkLED^(0+1280),f,c
  3348  000392  D7FC               	bra	u507
  3349  000394  2E2E               	decfsz	(??_BlinkLED+1)^(0+1280),f,c
  3350  000396  D7FA               	bra	u507
  3351  000398  D000               	nop2	
  3352  00039A                     
  3353                           ;application.c: 28:         LATCbits.LATC1 = 1;
  3354  00039A  82C0               	bsf	192,1,c	;volatile
  3355                           
  3356                           ;application.c: 29:         _delay((unsigned long)((250)*(64000000/4000.0)));
  3357  00039C  0E15               	movlw	21
  3358  00039E  6E2E               	movwf	(??_BlinkLED+1)^(0+1280),c
  3359  0003A0  0E4B               	movlw	75
  3360  0003A2  6E2D               	movwf	??_BlinkLED^(0+1280),c
  3361  0003A4  0EBE               	movlw	190
  3362  0003A6                     u517:
  3363  0003A6  2EE8               	decfsz	wreg,f,c
  3364  0003A8  D7FE               	bra	u517
  3365  0003AA  2E2D               	decfsz	??_BlinkLED^(0+1280),f,c
  3366  0003AC  D7FC               	bra	u517
  3367  0003AE  2E2E               	decfsz	(??_BlinkLED+1)^(0+1280),f,c
  3368  0003B0  D7FA               	bra	u517
  3369  0003B2  D000               	nop2	
  3370  0003B4                     
  3371                           ;application.c: 30:     }
  3372  0003B4  0630               	decf	BlinkLED@i^(0+1280),f,c
  3373  0003B6  A0D8               	btfss	status,0,c
  3374  0003B8  0631               	decf	(BlinkLED@i+1)^(0+1280),f,c
  3375  0003BA  BE31               	btfsc	(BlinkLED@i+1)^(0+1280),7,c
  3376  0003BC  EFEA  F001         	goto	u190
  3377  0003C0  5031               	movf	(BlinkLED@i+1)^(0+1280),w,c
  3378  0003C2  E106               	bnz	u191
  3379  0003C4  0430               	decf	BlinkLED@i^(0+1280),w,c
  3380  0003C6  B0D8               	btfsc	status,0,c
  3381  0003C8  EFE8  F001         	goto	u191
  3382  0003CC  EFEA  F001         	goto	u190
  3383  0003D0                     u191:
  3384  0003D0  EFC0  F001         	goto	l376
  3385  0003D4                     u190:
  3386  0003D4                     l378:
  3387  0003D4  0012               	return		;funcret
  3388  0003D6                     __end_of_BlinkLED:
  3389                           	callstack 0
  3390                           
  3391 ;; *************** function _INTERRUPT_InterruptManager *****************
  3392 ;; Defined at:
  3393 ;;		line 58 in file "mcc_generated_files/interrupt_manager.c"
  3394 ;; Parameters:    Size  Location     Type
  3395 ;;		None
  3396 ;; Auto vars:     Size  Location     Type
  3397 ;;		None
  3398 ;; Return value:  Size  Location     Type
  3399 ;;                  1    wreg      void 
  3400 ;; Registers used:
  3401 ;;		wreg, status,2, cstack
  3402 ;; Tracked objects:
  3403 ;;		On entry : 0/0
  3404 ;;		On exit  : 0/0
  3405 ;;		Unchanged: 0/0
  3406 ;; Data sizes:     COMRAM   BANK5   BANK6   BANK7   BANK8   BANK9  BANK10  BANK11  BANK12  BANK13  BANK14  BANK15  BANK1
      +6  BANK17  BANK18  BANK19  BANK20
  3407 ;;      Params:         0       0       0       0       0       0       0       0       0       0       0       0       
      +0       0       0       0       0
  3408 ;;      Locals:         0       0       0       0       0       0       0       0       0       0       0       0       
      +0       0       0       0       0
  3409 ;;      Temps:          0       0       0       0       0       0       0       0       0       0       0       0       
      +0       0       0       0       0
  3410 ;;      Totals:         0       0       0       0       0       0       0       0       0       0       0       0       
      +0       0       0       0       0
  3411 ;;Total ram usage:        0 bytes
  3412 ;; Hardware stack levels used:    1
  3413 ;; Hardware stack levels required when called:    1
  3414 ;; This function calls:
  3415 ;;		_CLC1_ISR
  3416 ;; This function is called by:
  3417 ;;		Interrupt level 2
  3418 ;; This function uses a non-reentrant model
  3419 ;;
  3420                           
  3421                           	psect	text26
  3422  0006C4                     __ptext26:
  3423                           	callstack 0
  3424  0006C4                     _INTERRUPT_InterruptManager:
  3425                           	callstack 119
  3426  0006C4                     
  3427                           ;mcc_generated_files/interrupt_manager.c: 61:     if(PIE0bits.CLC1IE == 1 && PIR0bits.CL
      +                          C1IF == 1)
  3428  0006C4  AAA8               	btfss	168,5,c	;volatile
  3429  0006C6  EF67  F003         	goto	i2u31_41
  3430  0006CA  EF69  F003         	goto	i2u31_40
  3431  0006CE                     i2u31_41:
  3432  0006CE  EF72  F003         	goto	i2l451
  3433  0006D2                     i2u31_40:
  3434  0006D2  AAB3               	btfss	179,5,c	;volatile
  3435  0006D4  EF6E  F003         	goto	i2u32_41
  3436  0006D8  EF70  F003         	goto	i2u32_40
  3437  0006DC                     i2u32_41:
  3438  0006DC  EF72  F003         	goto	i2l451
  3439  0006E0                     i2u32_40:
  3440  0006E0                     
  3441                           ;mcc_generated_files/interrupt_manager.c: 62:     {;mcc_generated_files/interrupt_manage
      +                          r.c: 63:         CLC1_ISR();
  3442  0006E0  ECDC  F003         	call	_CLC1_ISR	;wreg free
  3443  0006E4                     i2l451:
  3444  0006E4  0011               	retfie		f
  3445  0006E6                     __end_of_INTERRUPT_InterruptManager:
  3446                           	callstack 0
  3447                           
  3448 ;; *************** function _CLC1_ISR *****************
  3449 ;; Defined at:
  3450 ;;		line 93 in file "mcc_generated_files/clc1.c"
  3451 ;; Parameters:    Size  Location     Type
  3452 ;;		None
  3453 ;; Auto vars:     Size  Location     Type
  3454 ;;		None
  3455 ;; Return value:  Size  Location     Type
  3456 ;;                  1    wreg      void 
  3457 ;; Registers used:
  3458 ;;		wreg, status,2
  3459 ;; Tracked objects:
  3460 ;;		On entry : 0/0
  3461 ;;		On exit  : 0/0
  3462 ;;		Unchanged: 0/0
  3463 ;; Data sizes:     COMRAM   BANK5   BANK6   BANK7   BANK8   BANK9  BANK10  BANK11  BANK12  BANK13  BANK14  BANK15  BANK1
      +6  BANK17  BANK18  BANK19  BANK20
  3464 ;;      Params:         0       0       0       0       0       0       0       0       0       0       0       0       
      +0       0       0       0       0
  3465 ;;      Locals:         0       0       0       0       0       0       0       0       0       0       0       0       
      +0       0       0       0       0
  3466 ;;      Temps:          0       0       0       0       0       0       0       0       0       0       0       0       
      +0       0       0       0       0
  3467 ;;      Totals:         0       0       0       0       0       0       0       0       0       0       0       0       
      +0       0       0       0       0
  3468 ;;Total ram usage:        0 bytes
  3469 ;; Hardware stack levels used:    1
  3470 ;; This function calls:
  3471 ;;		Nothing
  3472 ;; This function is called by:
  3473 ;;		_INTERRUPT_InterruptManager
  3474 ;; This function uses a non-reentrant model
  3475 ;;
  3476                           
  3477                           	psect	text27
  3478  0007B8                     __ptext27:
  3479                           	callstack 0
  3480  0007B8                     _CLC1_ISR:
  3481                           	callstack 119
  3482  0007B8                     
  3483                           ;mcc_generated_files/clc1.c: 96:     PIR0bits.CLC1IF = 0;
  3484  0007B8  9AB3               	bcf	179,5,c	;volatile
  3485  0007BA                     
  3486                           ;mcc_generated_files/clc1.c: 97:     sw0_flag = 1;
  3487  0007BA  0E01               	movlw	1
  3488  0007BC  6E2C               	movwf	_sw0_flag^(0+1280),c
  3489  0007BE  0012               	return		;funcret
  3490  0007C0                     __end_of_CLC1_ISR:
  3491                           	callstack 0
  3492                           
  3493                           ;
  3494                           ; Interrupt Vector Table @ 0x8
  3495                           ;
  3496                           
  3497                           	psect	ivt0x8
  3498  000008                     __pivt0x8:
  3499                           	callstack 0
  3500  000008                     ivt0x8_base:
  3501                           	callstack 0
  3502                           
  3503                           ; high-priority vector
  3504  000008  EF62  F003         	goto	_INTERRUPT_InterruptManager
  3505  000018                     	org	16
  3506                           
  3507                           ; low-priority vector
  3508  000018  00FF               	reset	
  3509                           
  3510                           	psect	rparam
  3511  0000                     
  3512                           	psect	idloc
  3513                           
  3514                           ;Config register IDLOC0 @ 0x200000
  3515                           ;	unspecified, using default values
  3516  200000                     	org	2097152
  3517  200000  0FFF               	dw	4095
  3518                           
  3519                           ;Config register IDLOC1 @ 0x200002
  3520                           ;	unspecified, using default values
  3521  200002                     	org	2097154
  3522  200002  0FFF               	dw	4095
  3523                           
  3524                           ;Config register IDLOC2 @ 0x200004
  3525                           ;	unspecified, using default values
  3526  200004                     	org	2097156
  3527  200004  0FFF               	dw	4095
  3528                           
  3529                           ;Config register IDLOC3 @ 0x200006
  3530                           ;	unspecified, using default values
  3531  200006                     	org	2097158
  3532  200006  0FFF               	dw	4095
  3533                           
  3534                           ;Config register IDLOC4 @ 0x200008
  3535                           ;	unspecified, using default values
  3536  200008                     	org	2097160
  3537  200008  0FFF               	dw	4095
  3538                           
  3539                           ;Config register IDLOC5 @ 0x20000A
  3540                           ;	unspecified, using default values
  3541  20000A                     	org	2097162
  3542  20000A  0FFF               	dw	4095
  3543                           
  3544                           ;Config register IDLOC6 @ 0x20000C
  3545                           ;	unspecified, using default values
  3546  20000C                     	org	2097164
  3547  20000C  0FFF               	dw	4095
  3548                           
  3549                           ;Config register IDLOC7 @ 0x20000E
  3550                           ;	unspecified, using default values
  3551  20000E                     	org	2097166
  3552  20000E  0FFF               	dw	4095
  3553                           
  3554                           ;Config register IDLOC8 @ 0x200010
  3555                           ;	unspecified, using default values
  3556  200010                     	org	2097168
  3557  200010  0FFF               	dw	4095
  3558                           
  3559                           ;Config register IDLOC9 @ 0x200012
  3560                           ;	unspecified, using default values
  3561  200012                     	org	2097170
  3562  200012  0FFF               	dw	4095
  3563                           
  3564                           ;Config register IDLOC10 @ 0x200014
  3565                           ;	unspecified, using default values
  3566  200014                     	org	2097172
  3567  200014  0FFF               	dw	4095
  3568                           
  3569                           ;Config register IDLOC11 @ 0x200016
  3570                           ;	unspecified, using default values
  3571  200016                     	org	2097174
  3572  200016  0FFF               	dw	4095
  3573                           
  3574                           ;Config register IDLOC12 @ 0x200018
  3575                           ;	unspecified, using default values
  3576  200018                     	org	2097176
  3577  200018  0FFF               	dw	4095
  3578                           
  3579                           ;Config register IDLOC13 @ 0x20001A
  3580                           ;	unspecified, using default values
  3581  20001A                     	org	2097178
  3582  20001A  0FFF               	dw	4095
  3583                           
  3584                           ;Config register IDLOC14 @ 0x20001C
  3585                           ;	unspecified, using default values
  3586  20001C                     	org	2097180
  3587  20001C  0FFF               	dw	4095
  3588                           
  3589                           ;Config register IDLOC15 @ 0x20001E
  3590                           ;	unspecified, using default values
  3591  20001E                     	org	2097182
  3592  20001E  0FFF               	dw	4095
  3593                           
  3594                           	psect	config
  3595                           
  3596                           ;Config register CONFIG1 @ 0x300000
  3597                           ;	External Oscillator Selection
  3598                           ;	FEXTOSC = OFF, Oscillator not enabled
  3599                           ;	Reset Oscillator Selection
  3600                           ;	RSTOSC = HFINTOSC_64MHZ, HFINTOSC with HFFRQ = 64 MHz and CDIV = 1:1
  3601  300000                     	org	3145728
  3602  300000  8C                 	db	140
  3603                           
  3604                           ;Config register CONFIG2 @ 0x300001
  3605                           ;	Clock out Enable bit
  3606                           ;	CLKOUTEN = OFF, CLKOUT function is disabled
  3607                           ;	PRLOCKED One-Way Set Enable bit
  3608                           ;	PR1WAY = ON, PRLOCKED bit can be cleared and set only once
  3609                           ;	Clock Switch Enable bit
  3610                           ;	CSWEN = ON, Writing to NOSC and NDIV is allowed
  3611                           ;	Fail-Safe Clock Monitor Enable bit
  3612                           ;	FCMEN = ON, Fail-Safe Clock Monitor enabled
  3613                           ;	Fail-Safe Clock Monitor - Primary XTAL Enable bit
  3614                           ;	FCMENP = ON, Fail-Safe Clock Monitor enabled; timer will flag FSCMP bit and OSFIF inte
      +                          rrupt on EXTOSC failure.
  3615                           ;	Fail-Safe Clock Monitor - Secondary XTAL Enable bit
  3616                           ;	FCMENS = ON, Fail-Safe Clock Monitor enabled; timer will flag FSCMP bit and OSFIF inte
      +                          rrupt on SOSC failure.
  3617  300001                     	org	3145729
  3618  300001  FF                 	db	255
  3619                           
  3620                           ;Config register CONFIG3 @ 0x300002
  3621                           ;	MCLR Enable bit
  3622                           ;	MCLRE = EXTMCLR, If LVP = 0, MCLR pin is MCLR; If LVP = 1, RE3 pin function is MCLR
  3623                           ;	Power-up timer selection bits
  3624                           ;	PWRTS = PWRT_OFF, PWRT is disabled
  3625                           ;	Multi-vector enable bit
  3626                           ;	MVECEN = OFF, Interrupt contoller does not use vector table to prioritze interrupts
  3627                           ;	IVTLOCK bit One-way set enable bit
  3628                           ;	IVT1WAY = ON, IVTLOCKED bit can be cleared and set only once
  3629                           ;	Low Power BOR Enable bit
  3630                           ;	LPBOREN = OFF, Low-Power BOR disabled
  3631                           ;	Brown-out Reset Enable bits
  3632                           ;	BOREN = SBORDIS, Brown-out Reset enabled , SBOREN bit is ignored
  3633  300002                     	org	3145730
  3634  300002  F7                 	db	247
  3635                           
  3636                           ;Config register CONFIG4 @ 0x300003
  3637                           ;	Brown-out Reset Voltage Selection bits
  3638                           ;	BORV = VBOR_1P9, Brown-out Reset Voltage (VBOR) set to 1.9V
  3639                           ;	ZCD Disable bit
  3640                           ;	ZCD = OFF, ZCD module is disabled. ZCD can be enabled by setting the ZCDSEN bit of ZCD
      +                          CON
  3641                           ;	PPSLOCK bit One-Way Set Enable bit
  3642                           ;	PPS1WAY = ON, PPSLOCKED bit can be cleared and set only once; PPS registers remain loc
      +                          ked after one clear/set cycle
  3643                           ;	Stack Full/Underflow Reset Enable bit
  3644                           ;	STVREN = ON, Stack full/underflow will cause Reset
  3645                           ;	Low Voltage Programming Enable bit
  3646                           ;	LVP = ON, Low voltage programming enabled. MCLR/VPP pin function is MCLR. MCLRE config
      +                          uration bit is ignored
  3647                           ;	Extended Instruction Set Enable bit
  3648                           ;	XINST = OFF, Extended Instruction Set and Indexed Addressing Mode disabled
  3649  300003                     	org	3145731
  3650  300003  FF                 	db	255
  3651                           
  3652                           ;Config register CONFIG5 @ 0x300004
  3653                           ;	WDT Period selection bits
  3654                           ;	WDTCPS = WDTCPS_31, Divider ratio 1:65536; software control of WDTPS
  3655                           ;	WDT operating mode
  3656                           ;	WDTE = OFF, WDT Disabled; SWDTEN is ignored
  3657  300004                     	org	3145732
  3658  300004  9F                 	db	159
  3659                           
  3660                           ;Config register CONFIG6 @ 0x300005
  3661                           ;	WDT Window Select bits
  3662                           ;	WDTCWS = WDTCWS_7, window always open (100%); software control; keyed access not requi
      +                          red
  3663                           ;	WDT input clock selector
  3664                           ;	WDTCCS = SC, Software Control
  3665  300005                     	org	3145733
  3666  300005  FF                 	db	255
  3667                           
  3668                           ;Config register CONFIG7 @ 0x300006
  3669                           ;	Boot Block Size selection bits
  3670                           ;	BBSIZE = BBSIZE_512, Boot Block size is 512 words
  3671                           ;	Boot Block enable bit
  3672                           ;	BBEN = OFF, Boot block disabled
  3673                           ;	Storage Area Flash enable bit
  3674                           ;	SAFEN = OFF, SAF disabled
  3675                           ;	Background Debugger
  3676                           ;	DEBUG = OFF, Background Debugger disabled
  3677  300006                     	org	3145734
  3678  300006  FF                 	db	255
  3679                           
  3680                           ;Config register CONFIG8 @ 0x300007
  3681                           ;	Boot Block Write Protection bit
  3682                           ;	WRTB = OFF, Boot Block not Write protected
  3683                           ;	Configuration Register Write Protection bit
  3684                           ;	WRTC = OFF, Configuration registers not Write protected
  3685                           ;	Data EEPROM Write Protection bit
  3686                           ;	WRTD = OFF, Data EEPROM not Write protected
  3687                           ;	SAF Write protection bit
  3688                           ;	WRTSAF = OFF, SAF not Write Protected
  3689                           ;	Application Block write protection bit
  3690                           ;	WRTAPP = OFF, Application Block not write protected
  3691  300007                     	org	3145735
  3692  300007  FF                 	db	255
  3693                           
  3694                           ;Config register CONFIG9 @ 0x300008
  3695                           ;	PFM and Data EEPROM Code Protection bit
  3696                           ;	CP = OFF, PFM and Data EEPROM code protection disabled
  3697  300008                     	org	3145736
  3698  300008  FF                 	db	255
  3699                           
  3700                           ; Padding undefined space
  3701  300009                     	org	3145737
  3702  300009  FF                 	db	255
  3703                           tosu	equ	0x4FF
  3704                           tosh	equ	0x4FE
  3705                           tosl	equ	0x4FD
  3706                           stkptr	equ	0x4FC
  3707                           pclatu	equ	0x4FB
  3708                           pclath	equ	0x4FA
  3709                           pcl	equ	0x4F9
  3710                           tblptru	equ	0x4F8
  3711                           tblptrh	equ	0x4F7
  3712                           tblptrl	equ	0x4F6
  3713                           tablat	equ	0x4F5
  3714                           prodh	equ	0x4F4
  3715                           prodl	equ	0x4F3
  3716                           indf0	equ	0x4EF
  3717                           postinc0	equ	0x4EE
  3718                           postdec0	equ	0x4ED
  3719                           preinc0	equ	0x4EC
  3720                           plusw0	equ	0x4EB
  3721                           fsr0h	equ	0x4EA
  3722                           fsr0l	equ	0x4E9
  3723                           wreg	equ	0x4E8
  3724                           indf1	equ	0x4E7
  3725                           postinc1	equ	0x4E6
  3726                           postdec1	equ	0x4E5
  3727                           preinc1	equ	0x4E4
  3728                           plusw1	equ	0x4E3
  3729                           fsr1h	equ	0x4E2
  3730                           fsr1l	equ	0x4E1
  3731                           bsr	equ	0x4E0
  3732                           indf2	equ	0x4DF
  3733                           postinc2	equ	0x4DE
  3734                           postdec2	equ	0x4DD
  3735                           preinc2	equ	0x4DC
  3736                           plusw2	equ	0x4DB
  3737                           fsr2h	equ	0x4DA
  3738                           fsr2l	equ	0x4D9
  3739                           status	equ	0x4D8

Data Sizes:
    Strings     674
    Constant    0
    Data        0
    BSS         44
    Persistent  8
    Stack       0

Auto Spaces:
    Space          Size  Autos    Used
    COMRAM           95     33      85
    BANK5           160      0       0
    BANK6           256      0       0
    BANK7           256      0       0
    BANK8           256      0       0
    BANK9           256      0       0
    BANK10          256      0       0
    BANK11          256      0       0
    BANK12          256      0       0
    BANK13          256      0       0
    BANK14          256      0       0
    BANK15          256      0       0
    BANK16          256      0       0
    BANK17          256      0       0
    BANK18          256      0       0
    BANK19          256      0       0
    BANK20          256      0       0

Pointer List with Targets:

    vfpfcnvrt@ap	PTR PTR void  size(2) Largest target is 2
		 -> printf@ap(COMRAM[2]), 

    S1728_IO_FILE$buffer	PTR unsigned char  size(2) Largest target is 0

    fputc@fp.buffer	PTR unsigned char  size(2) Largest target is 0

    fputc@fp	PTR struct _IO_FILE size(2) Largest target is 0
		 -> NULL(NULL[0]), 

    vfprintf@ap	PTR PTR void  size(2) Largest target is 2
		 -> printf@ap(COMRAM[2]), 

    vfprintf@fp	PTR struct _IO_FILE size(2) Largest target is 0
		 -> NULL(NULL[0]), 

    vfprintf@fmt	PTR const unsigned char  size(2) Largest target is 74
		 -> STR_14(CODE[35]), STR_13(CODE[60]), STR_12(CODE[35]), STR_11(CODE[64]), 
		 -> STR_10(CODE[35]), STR_9(CODE[40]), STR_8(CODE[51]), STR_7(CODE[57]), 
		 -> STR_6(CODE[70]), STR_5(CODE[60]), STR_4(CODE[74]), STR_3(CODE[55]), 
		 -> STR_2(CODE[39]), STR_1(CODE[34]), 

    vfprintf@cfmt	PTR unsigned char  size(2) Largest target is 74
		 -> STR_14(CODE[35]), STR_13(CODE[60]), STR_12(CODE[35]), STR_11(CODE[64]), 
		 -> STR_10(CODE[35]), STR_9(CODE[40]), STR_8(CODE[51]), STR_7(CODE[57]), 
		 -> STR_6(CODE[70]), STR_5(CODE[60]), STR_4(CODE[74]), STR_3(CODE[55]), 
		 -> STR_2(CODE[39]), STR_1(CODE[34]), 

    vfpfcnvrt@fp	PTR struct _IO_FILE size(2) Largest target is 0
		 -> NULL(NULL[0]), 

    vfpfcnvrt@fmt	PTR PTR unsigned char  size(2) Largest target is 2
		 -> vfprintf@cfmt(COMRAM[2]), 

    printf@fmt	PTR const unsigned char  size(2) Largest target is 74
		 -> STR_14(CODE[35]), STR_13(CODE[60]), STR_12(CODE[35]), STR_11(CODE[64]), 
		 -> STR_10(CODE[35]), STR_9(CODE[40]), STR_8(CODE[51]), STR_7(CODE[57]), 
		 -> STR_6(CODE[70]), STR_5(CODE[60]), STR_4(CODE[74]), STR_3(CODE[55]), 
		 -> STR_2(CODE[39]), STR_1(CODE[34]), 

    printf@ap	PTR void [1] size(2) Largest target is 2
		 -> ?_printf(COMRAM[2]), 

    UART1_SetErrorHandler@interruptHandler	PTR FTN()void  size(2) Largest target is 1
		 -> UART1_DefaultErrorHandler(), 

    UART1_SetOverrunErrorHandler@interruptHandler	PTR FTN()void  size(2) Largest target is 1
		 -> UART1_DefaultOverrunErrorHandler(), 

    UART1_SetFramingErrorHandler@interruptHandler	PTR FTN()void  size(2) Largest target is 1
		 -> UART1_DefaultFramingErrorHandler(), 

    UART1_ErrorHandler	PTR FTN()void  size(2) Largest target is 1
		 -> Absolute function(), UART1_DefaultErrorHandler(), 

    UART1_OverrunErrorHandler	PTR FTN()void  size(2) Largest target is 1
		 -> Absolute function(), UART1_DefaultOverrunErrorHandler(), 

    UART1_FramingErrorHandler	PTR FTN()void  size(2) Largest target is 1
		 -> Absolute function(), UART1_DefaultFramingErrorHandler(), 


Critical Paths under _main in COMRAM

    _main->_printf
    _UART1_Initialize->_UART1_SetErrorHandler
    _UART1_Initialize->_UART1_SetFramingErrorHandler
    _UART1_Initialize->_UART1_SetOverrunErrorHandler
    _OPA_UnityGain->_printf
    _OPA_NonInverting->_printf
    _OPA_Inverting->_printf
    _OPA_External->_printf
    _IntroSplashMessage->_printf
    _printf->_vfprintf
    _vfprintf->_vfpfcnvrt
    _vfpfcnvrt->_fputc
    _fputc->_putch
    _putch->_UART1_Write

Critical Paths under _INTERRUPT_InterruptManager in COMRAM

    None.

Critical Paths under _main in BANK5

    None.

Critical Paths under _INTERRUPT_InterruptManager in BANK5

    None.

Critical Paths under _main in BANK6

    None.

Critical Paths under _INTERRUPT_InterruptManager in BANK6

    None.

Critical Paths under _main in BANK7

    None.

Critical Paths under _INTERRUPT_InterruptManager in BANK7

    None.

Critical Paths under _main in BANK8

    None.

Critical Paths under _INTERRUPT_InterruptManager in BANK8

    None.

Critical Paths under _main in BANK9

    None.

Critical Paths under _INTERRUPT_InterruptManager in BANK9

    None.

Critical Paths under _main in BANK10

    None.

Critical Paths under _INTERRUPT_InterruptManager in BANK10

    None.

Critical Paths under _main in BANK11

    None.

Critical Paths under _INTERRUPT_InterruptManager in BANK11

    None.

Critical Paths under _main in BANK12

    None.

Critical Paths under _INTERRUPT_InterruptManager in BANK12

    None.

Critical Paths under _main in BANK13

    None.

Critical Paths under _INTERRUPT_InterruptManager in BANK13

    None.

Critical Paths under _main in BANK14

    None.

Critical Paths under _INTERRUPT_InterruptManager in BANK14

    None.

Critical Paths under _main in BANK15

    None.

Critical Paths under _INTERRUPT_InterruptManager in BANK15

    None.

Critical Paths under _main in BANK16

    None.

Critical Paths under _INTERRUPT_InterruptManager in BANK16

    None.

Critical Paths under _main in BANK17

    None.

Critical Paths under _INTERRUPT_InterruptManager in BANK17

    None.

Critical Paths under _main in BANK18

    None.

Critical Paths under _INTERRUPT_InterruptManager in BANK18

    None.

Critical Paths under _main in BANK19

    None.

Critical Paths under _INTERRUPT_InterruptManager in BANK19

    None.

Critical Paths under _main in BANK20

    None.

Critical Paths under _INTERRUPT_InterruptManager in BANK20

    None.

Call Graph Tables:

 ---------------------------------------------------------------------------------
 (Depth) Function   	        Calls       Base Space   Used Autos Params    Refs
 ---------------------------------------------------------------------------------
 (0) _main                                                 2     2      0   16167
                                             31 COMRAM     2     2      0
                           _BlinkLED
                     _GetOpampConfig
                 _IntroSplashMessage
                       _OPA_External
                      _OPA_Inverting
                   _OPA_NonInverting
                      _OPA_UnityGain
                  _SYSTEM_Initialize
                             _printf
 ---------------------------------------------------------------------------------
 (1) _SYSTEM_Initialize                                    0     0      0     294
                    _CLC1_Initialize
               _INTERRUPT_Initialize
                    _OPA1_Initialize
              _OSCILLATOR_Initialize
             _PIN_MANAGER_Initialize
                     _PMD_Initialize
                    _TMR2_Initialize
                   _UART1_Initialize
 ---------------------------------------------------------------------------------
 (2) _UART1_Initialize                                     0     0      0     294
              _UART1_SetErrorHandler
       _UART1_SetFramingErrorHandler
       _UART1_SetOverrunErrorHandler
 ---------------------------------------------------------------------------------
 (3) _UART1_SetOverrunErrorHandler                         2     0      2      98
                                              0 COMRAM     2     0      2
 ---------------------------------------------------------------------------------
 (3) _UART1_SetFramingErrorHandler                         2     0      2      98
                                              0 COMRAM     2     0      2
 ---------------------------------------------------------------------------------
 (3) _UART1_SetErrorHandler                                2     0      2      98
                                              0 COMRAM     2     0      2
 ---------------------------------------------------------------------------------
 (2) _TMR2_Initialize                                      0     0      0       0
 ---------------------------------------------------------------------------------
 (2) _PMD_Initialize                                       0     0      0       0
 ---------------------------------------------------------------------------------
 (2) _PIN_MANAGER_Initialize                               0     0      0       0
 ---------------------------------------------------------------------------------
 (2) _OSCILLATOR_Initialize                                0     0      0       0
 ---------------------------------------------------------------------------------
 (2) _OPA1_Initialize                                      0     0      0       0
 ---------------------------------------------------------------------------------
 (2) _INTERRUPT_Initialize                                 0     0      0       0
 ---------------------------------------------------------------------------------
 (2) _CLC1_Initialize                                      0     0      0       0
 ---------------------------------------------------------------------------------
 (1) _OPA_UnityGain                                        0     0      0    2638
                             _printf
 ---------------------------------------------------------------------------------
 (1) _OPA_NonInverting                                     0     0      0    2638
                             _printf
 ---------------------------------------------------------------------------------
 (1) _OPA_Inverting                                        0     0      0    2638
                             _printf
 ---------------------------------------------------------------------------------
 (1) _OPA_External                                         0     0      0    2638
                             _printf
 ---------------------------------------------------------------------------------
 (1) _IntroSplashMessage                                   0     0      0    2638
                             _printf
 ---------------------------------------------------------------------------------
 (1) _printf                                               6     4      2    2638
                                             25 COMRAM     6     4      2
                           _vfprintf
 ---------------------------------------------------------------------------------
 (2) _vfprintf                                             8     2      6    1522
                                             17 COMRAM     8     2      6
                          _vfpfcnvrt
 ---------------------------------------------------------------------------------
 (3) _vfpfcnvrt                                           40    34      6    1172
                                             11 COMRAM     6     0      6
                              _fputc
 ---------------------------------------------------------------------------------
 (4) _fputc                                                9     5      4     746
                                              2 COMRAM     9     5      4
                              _putch
 ---------------------------------------------------------------------------------
 (5) _putch                                                1     1      0      30
                                              1 COMRAM     1     1      0
                        _UART1_Write
 ---------------------------------------------------------------------------------
 (6) _UART1_Write                                          1     1      0      15
                                              0 COMRAM     1     1      0
 ---------------------------------------------------------------------------------
 (1) _GetOpampConfig                                       4     4      0       0
                                              0 COMRAM     4     4      0
 ---------------------------------------------------------------------------------
 (1) _BlinkLED                                             5     5      0      45
                                              0 COMRAM     5     5      0
 ---------------------------------------------------------------------------------
 Estimated maximum stack depth 6
 ---------------------------------------------------------------------------------
 (Depth) Function   	        Calls       Base Space   Used Autos Params    Refs
 ---------------------------------------------------------------------------------
 (8) _INTERRUPT_InterruptManager                           0     0      0       0
                           _CLC1_ISR
 ---------------------------------------------------------------------------------
 (9) _CLC1_ISR                                             0     0      0       0
 ---------------------------------------------------------------------------------
 Estimated maximum stack depth 9
 ---------------------------------------------------------------------------------

 Call Graph Graphs:

 _main (ROOT)
   _BlinkLED
   _GetOpampConfig
   _IntroSplashMessage
     _printf
       _vfprintf
         _vfpfcnvrt
           _fputc
             _putch
               _UART1_Write
   _OPA_External
     _printf
       _vfprintf
         _vfpfcnvrt
           _fputc
             _putch
               _UART1_Write
   _OPA_Inverting
     _printf
       _vfprintf
         _vfpfcnvrt
           _fputc
             _putch
               _UART1_Write
   _OPA_NonInverting
     _printf
       _vfprintf
         _vfpfcnvrt
           _fputc
             _putch
               _UART1_Write
   _OPA_UnityGain
     _printf
       _vfprintf
         _vfpfcnvrt
           _fputc
             _putch
               _UART1_Write
   _SYSTEM_Initialize
     _CLC1_Initialize
     _INTERRUPT_Initialize
     _OPA1_Initialize
     _OSCILLATOR_Initialize
     _PIN_MANAGER_Initialize
     _PMD_Initialize
     _TMR2_Initialize
     _UART1_Initialize
       _UART1_SetErrorHandler
       _UART1_SetFramingErrorHandler
       _UART1_SetOverrunErrorHandler
   _printf
     _vfprintf
       _vfpfcnvrt
         _fputc
           _putch
             _UART1_Write

 _INTERRUPT_InterruptManager (ROOT)
   _CLC1_ISR

 Address spaces:
Name               Size   Autos  Total    Cost      Usage
BIGRAM             FFF      0       0      37        0.0%
EEDATA             400      0       0       0        0.0%
BITBANK20          100      0       0      35        0.0%
BANK20             100      0       0      36        0.0%
BITBANK19          100      0       0      33        0.0%
BANK19             100      0       0      34        0.0%
BITBANK18          100      0       0      31        0.0%
BANK18             100      0       0      32        0.0%
BITBANK17          100      0       0      29        0.0%
BANK17             100      0       0      30        0.0%
BITBANK16          100      0       0      27        0.0%
BANK16             100      0       0      28        0.0%
BITBANK15          100      0       0      25        0.0%
BANK15             100      0       0      26        0.0%
BITBANK14          100      0       0      23        0.0%
BANK14             100      0       0      24        0.0%
BITBANK13          100      0       0      21        0.0%
BANK13             100      0       0      22        0.0%
BITBANK12          100      0       0      19        0.0%
BANK12             100      0       0      20        0.0%
BITBANK11          100      0       0      17        0.0%
BANK11             100      0       0      18        0.0%
BITBANK10          100      0       0      15        0.0%
BANK10             100      0       0      16        0.0%
BITBANK9           100      0       0      13        0.0%
BANK9              100      0       0      14        0.0%
BITBANK8           100      0       0      11        0.0%
BANK8              100      0       0      12        0.0%
BITBANK7           100      0       0       9        0.0%
BANK7              100      0       0      10        0.0%
BITBANK6           100      0       0       7        0.0%
BANK6              100      0       0       8        0.0%
BITBANK5            A0      0       0       4        0.0%
BANK5               A0      0       0       5        0.0%
BITCOMRAM           5F      0       0       0        0.0%
COMRAM              5F     21      55       1       89.5%
BITSFR_5             0      0       0     200        0.0%
SFR_5                0      0       0     200        0.0%
BITSFR_4             0      0       0     200        0.0%
SFR_4                0      0       0     200        0.0%
BITSFR_3             0      0       0     200        0.0%
SFR_3                0      0       0     200        0.0%
BITSFR_2             0      0       0     200        0.0%
SFR_2                0      0       0     200        0.0%
BITSFR_1             0      0       0     200        0.0%
SFR_1                0      0       0     200        0.0%
BITSFR               0      0       0     200        0.0%
SFR                  0      0       0     200        0.0%
STACK                0      0       0       2        0.0%
NULL                 0      0       0       0        0.0%
ABS                  0      0      55       6        0.0%
DATA                 0      0      55       3        0.0%
CODE                 0      0       0       0        0.0%


Microchip Technology PIC18 Macro Assembler V2.20 build 20200408173844 
Symbol Table                                                                                   Wed Aug 26 16:17:32 2020

                                          l51 073E                                            l45 06C2  
                                          l48 075A                                            l78 0776  
                                          u10 0788                                            u11 0784  
                     __end_of_OPA1_Initialize 0778                                           l330 00C6  
                                         l171 0502                                           l237 043C  
                                         l325 0078                                           l334 0114  
                                         l263 077A                                           l272 07B6  
                                         l425 05C2                                           l266 078E  
                                         l370 058A                                           l290 07AC  
                                         l338 0162                                           l444 07C2  
                                         l284 07A2                                           l373 054C  
                                         l381 067A                                           l390 064C  
                                         l287 0798                                           l376 0380  
                                         l384 05F0                                           l378 03D4  
                                         l387 061E                                           l478 0722  
                                         u160 0516                                           u400 022E  
                                         u161 050E                                           u401 022A  
                                         u170 052C                                           u410 0498  
                                         u171 0524                                           u411 0494  
                                         u180 037C                                           u420 0042  
                                         u181 0378                                           u421 003E  
                                         u190 03D4                                           u350 02D2  
                                         u430 0068                                           _PR2 00031D  
                                         u191 03D0                                           u351 02CE  
                                         u431 0064                                           u168 0518  
                                         u360 02E4                                           u440 0090  
                                         u361 02E0                                           u441 008C  
                                         u178 052E                                           u370 030C  
                                         u450 00B6                                           u507 038C  
                                         u371 0308                                           u451 00B2  
                                         u380 0342                                           u460 00DE  
                                         u517 03A6                                           u381 033E  
                                         u461 00DA                                           u390 01DE  
                                         u470 0104                                           u391 01DA  
                                         u471 0100                                           u480 012C  
                                         u481 0128                                           u490 0152  
                                         u491 014E                       __size_of_PMD_Initialize 001C  
                             _TMR2_Initialize 0706                                           wreg 0004E8  
                                        l1232 02BE                                          l1250 0354  
                                        l1332 07C0                                          l1340 04F2  
                                        l1237 0498                                          l1422 0382  
                                        l1414 0504                                          l1270 07B0  
                                        l1238 04A0                                          l1342 0740  
                                        l1334 0724                                          l1350 0706  
                                        l1424 039A                                          l1416 0358  
                                        l1344 058C                                          l1336 04A2  
                                        l1352 071C                                          l1426 03B4  
                                        l1418 0362                                          l1266 077A  
                                        l1346 05BE                                          l1338 04E8  
                                        l1268 0788                                          l1348 05C0  
                                        l1364 075C                                          l1710 02A8  
                                        l1702 0260                                          l1199 06A0  
                                        l1704 0272                                          l1800 0620  
                                        l1720 07A4                                          l1722 043E  
                                        l1810 0648                                          l1802 0638  
                                        l1730 03D6                                          l1708 027E  
                                        l1724 0446                                          l1740 067C  
                                        l1804 063C                                          l1716 079A  
                                        l1732 0414                                          l1820 0030  
                                        l1812 001E                                          l1670 02C0  
                                        l1726 0452                                          l1742 0684  
                                        l1806 0640                                          l1718 0790  
                                        l1734 0420                                          l1750 06AA  
                                        l1830 0068                                          l1822 0042  
                                        l1814 0022                                          l1680 0342  
                                        l1672 02D2                                          l1728 0476  
                                        l1808 0644                                          l1736 042C  
                                        l1760 06BE                                          l1752 06AE  
                                        l1840 009A                                          l1832 0074  
                                        l1824 0048                                          l1816 0024  
                                        l1674 02E4                                          l1690 0200  
                                        l1762 054E                                          l1770 066E  
                                        l1738 0438                                          l1754 06B2  
                                        l1746 06A2                                          l1906 018A  
                                        l1850 00DE                                          l1842 00A6  
                                        l1834 007E                                          l1826 004C  
                                        l1818 0028                                          l1676 02EE  
                                        l1692 0204                                          l1684 01B4  
                                        l1772 0672                                          l1764 064E  
                                        l1780 05E0                                          l1756 06B6  
                                        l1748 06A6                                          l1860 0110  
                                        l1852 00E4                                          l1844 00B6  
                                        l1836 0090                                          l1828 0058  
                                        l1678 030C                                          l1694 022E  
                                        l1686 01DE                                          l1774 0676  
                                        l1766 0666                                          l1790 060A  
                                        l1782 05E4                                          l1758 06BA  
                                        l1870 0142                                          l1862 011A  
                                        l1854 00E8                                          l1846 00C2  
                                        l1838 0096                                          l1696 0240  
                                        l1688 01F0                                          l1768 066A  
                                        l1792 060E                                          l1784 05E8  
                                        l1776 05C4                                          l1872 0152  
                                        l1864 012C                                          l1856 00F4  
                                        l1848 00CC                                          l1880 0174  
                                        l1698 0254                                          l1794 0612  
                                        l1786 05EC                                          l1778 05DC  
                                        l1874 015E                                          l1866 0132  
                                        l1858 0104                                          l1796 0616  
                                        l1788 05F2                                          l1876 0168  
                                        l1868 0136                                          l1798 061A  
                                        STR_1 FFDD                                          STR_2 FF70  
                                        STR_3 FEDE                                          STR_4 FD5D  
                                        STR_5 FE2D                                          STR_6 FDA7  
                                        STR_7 FEA5                                          STR_8 FF15  
                                        STR_9 FF48                                          _LATA 0004BE  
                                        _LATB 0004BF                                          _LATC 0004C0  
                                        _T2PR 00031D                                          _PMD0 000063  
                                        _PMD1 000064                                          _PMD2 000065  
                                        _PMD3 000066                                          _PMD4 000067  
                                        _PMD5 000068                                          _TMR2 00031C  
                                        _WPUA 000401                                          _WPUB 000409  
                                        _WPUC 000411                       __size_of_GetOpampConfig 004A  
                                        _dbuf 0501                                          _main 001E  
                                        _prec 0525                                          _nout 0521  
                                        fsr1h 0004E2                                          fsr2h 0004DA  
                                        fsr1l 0004E1                                          fsr2l 0004D9  
                            __end_of_CLC1_ISR 07C0                                          start 001A  
                                ___param_bank 000000                      __end_of_OPA_NonInverting 0620  
              __size_of_OSCILLATOR_Initialize 001C                 __end_of_OSCILLATOR_Initialize 075C  
                                       ?_main 052D                                         STR_10 FFBA  
                                       STR_11 FDED                                         STR_12 FFBA  
                                       STR_13 FE69                                         STR_14 FF97  
                                       _U1P1H 0002A6                                         _U1P2H 0002A8  
                                       _U1P1L 0002A5                                         _U1P3H 0002AA  
                                       _T2CON 00031E                                         _U1P2L 0002A7  
                                       _U1P3L 0002A9                                         _T2HLT 00031F  
                                       _T2TMR 00031C                                         _U1UIR 0002B1  
                                       _T2RST 000321                                         _U1RXB 0002A1  
                                       _U1TXB 0002A3                                         i2l451 06E4  
                                       i2l428 07BE                                         _OSCEN 0000B3  
                                vfpfcnvrt@fmt 053A                                         _TRISA 0004C6  
                                       _TRISB 0004C7                                         _TRISC 0004C8  
                                       _flags 0527                                         _fputc 02C0  
                 __size_of_IntroSplashMessage 003E                                         _width 0523  
                                       _putch 07AE                                         tablat 0004F5  
                                       status 0004D8              _UART1_DefaultFramingErrorHandler 000000  
                            __end_of_BlinkLED 03D6                               __initialization 06E6  
                       __end_of_OPA_Inverting 064E                                  __end_of_main 01B4  
                     __end_of_TMR2_Initialize 0724                   ?_INTERRUPT_InterruptManager 052D  
                            ?_OPA1_Initialize 052D                                  ?_UART1_Write 052D  
                                      ??_main 054C                                 __activetblptr 000003  
                            _UART1_Initialize 03D6                                        ?_fputc 052F  
                                      _ACTCON 0000AC                         __end_of_OPA_UnityGain 05F2  
                                      _ANSELA 000400                                        ?_putch 052D  
                                      _ANSELB 000408                                        _ANSELC 000410  
                                      _U1CON0 0002AB                                        _U1CON1 0002AC  
                                      _U1CON2 0002AD                                        _U1BRGH 0002AF  
                                      _U1FIFO 0002B0                                        _U1BRGL 0002AE  
                                      _RB7PPS 000210                                        _ODCONA 000402  
                                      _ODCONB 00040A                                        _ODCONC 000412  
                                      i2l1624 06C4                                        i2l1626 06D2  
                                      i2l1476 07B8                                        i2l1628 06E0  
                                      i2l1478 07BA                                        _INLVLA 000404  
                                      _INLVLB 00040C                                        _INLVLC 000414  
                                      _OSCFRQ 0000B1                         _UART1_SetErrorHandler 07A4  
                                vfprintf@cfmt 0544                                        clear_0 06EC  
                                      _printf 067C                                        fputc@c 052F  
                              _PMD_Initialize 0724                                     ?_CLC1_ISR 052D  
                                __mediumconst FD5C                                        tblptrh 0004F7  
                                      tblptrl 0004F6                                        tblptru 0004F8  
                            __end_of_vfprintf 04A2          __end_of_UART1_SetOverrunErrorHandler 079A  
       __size_of_UART1_SetOverrunErrorHandler 000A                  _UART1_SetOverrunErrorHandler 0790  
                             _CLC1_Initialize 058C                     _UART1_DefaultErrorHandler 000000  
               __size_of_INTERRUPT_Initialize 0004                                _GetOpampConfig 0504  
                           _SYSTEM_Initialize 06A2                                    __accesstop 0560  
                     __end_of__initialization 0700                            ?_SYSTEM_Initialize 052D  
                               ___rparam_used 000001                                __pcstackCOMRAM 052D  
                         ??_SYSTEM_Initialize 052F                                 __end_of_fputc 0356  
                               __end_of_putch 07B8                              ?_TMR2_Initialize 052D  
                      __end_of_PMD_Initialize 0740                                    ??_CLC1_ISR 052D  
                                   ?_BlinkLED 052D                     _UART1_FramingErrorHandler 0554  
                                     ??_fputc 0533                        __end_of_GetOpampConfig 054E  
                   __end_of_SYSTEM_Initialize 06C4                                       ??_putch 052E  
               ?_UART1_SetOverrunErrorHandler 052D                        ?_UART1_SetErrorHandler 052D  
                                  __pnvCOMRAM 054E                                       IVTBASEH 00045E  
                                     IVTBASEL 00045D                                       IVTBASEU 00045F  
                               ?_OPA_External 052D                                       _CLCDATA 0000D4  
                           ?_OPA_NonInverting 052D                                       ?_printf 0546  
                             ?_PMD_Initialize 052D                                       _CLCnCON 0000D6  
                                     _CLCnPOL 0000D7                                       _U1ERRIE 0002B3  
                          ??_OPA_NonInverting 054C                                       _U1ERRIR 0002B2  
                     __end_of_CLC1_Initialize 05C4                                       _T2INPPS 000248  
                        __size_of_UART1_Write 0018                                       _OPA1HWC 0000A7  
                                     _U1RXPPS 000272                                       _OPA1ORS 0000A9  
                                  ??_BlinkLED 052D                                       _OSCCON1 0000AD  
                                     _OSCCON3 0000AF                            __size_of_vfpfcnvrt 010C  
                                     i2u31_40 06D2                                       i2u31_41 06CE  
                                     i2u32_40 06E0                                       i2u32_41 06DC  
                                     _OSCTUNE 0000B0                                       _SLRCONA 000403  
                                     _SLRCONB 00040B                                       _SLRCONC 000413  
                             ?_GetOpampConfig 052D                                       __Hparam 0000  
                              ??_OPA_External 054C                                       __Lparam 0000  
                    __end_of_UART1_Initialize 043E                                     _CLCSELECT 0000D5  
                                   ?_vfprintf 053E                                       __pcinit 06E6  
                                     __ramtop 1500                                       __ptext0 001E  
                                     __ptext1 06A2                                       __ptext2 03D6  
                                     __ptext3 0790                                       __ptext4 079A  
                                     __ptext5 07A4                                       __ptext6 0706  
                                     __ptext7 0724                                       __ptext8 04A2  
                                     __ptext9 0740                               __size_of_printf 0026  
                       _OSCILLATOR_Initialize 0740                                     _T2CONbits 00031E  
                    ??_PIN_MANAGER_Initialize 052D                                     _T2HLTbits 00031F  
                  __end_of_IntroSplashMessage 058C                                    _opa_config 054E  
                  __size_of_SYSTEM_Initialize 0022                          end_of_initialization 0700  
                                   _T2RSTbits 000321                                     BlinkLED@i 0530  
                                     fputc@fp 0531                ??_UART1_SetOverrunErrorHandler 052F  
                           __end_of_vfpfcnvrt 02C0                                       postdec2 0004DD  
                                     postinc0 0004EE                                       postinc1 0004E6  
                                     postinc2 0004DE                                    ??_vfprintf 0544  
                           UART1_Write@txData 052D                                     _PORTAbits 0004CE  
                            ?_CLC1_Initialize 052D                      __size_of_OPA1_Initialize 001C  
                           __size_of_CLC1_ISR 0008                        __size_of_OPA_Inverting 002E  
                                _OPA1CON0bits 0000A3                                  _OPA1CON1bits 0000A4  
                                _OPA1CON2bits 0000A5                                  _OPA1CON3bits 0000A6  
                __end_of_INTERRUPT_Initialize 07C4                                   vfpfcnvrt@ap 053C  
                                 vfpfcnvrt@fp 0538                        __size_of_OPA_UnityGain 002E  
                      ?_OSCILLATOR_Initialize 052D                                __end_of_printf 06A2  
                         start_initialization 06E6               __size_of_PIN_MANAGER_Initialize 0062  
                        __end_of_OPA_External 067C                       ??_UART1_SetErrorHandler 052F  
                           __size_of_BlinkLED 0080                                   putch@txData 052E  
                                  ivt0x8_base 0008                                   _CLCDATAbits 0000D4  
                                 vfprintf@fmt 0540                              ??_PMD_Initialize 052D  
                               _OPA_Inverting 0620                                      ??_printf 0548  
                            ??_GetOpampConfig 052D                                   __pbssCOMRAM 0501  
                          _UART1_ErrorHandler 0550                      __size_of_TMR2_Initialize 001E  
                   __size_of_OPA_NonInverting 002E                                 _OPA_UnityGain 05C4  
                           ??_OPA1_Initialize 052D                        _PIN_MANAGER_Initialize 04A2  
                           ?_UART1_Initialize 052D                                ?_OPA_Inverting 052D  
        __end_of_UART1_SetFramingErrorHandler 07A4         __size_of_UART1_SetFramingErrorHandler 000A  
                _UART1_SetFramingErrorHandler 079A                                 __pmediumconst FD5C  
                          ??_UART1_Initialize 052F                              _uart1RxLastError 052B  
                               ??_UART1_Write 052D                  ??_INTERRUPT_InterruptManager 052D  
                           __size_of_vfprintf 0064              _UART1_DefaultOverrunErrorHandler 000000  
                                    _CLC1_ISR 07B8                                     _init_flag 0529  
                              __size_of_fputc 0096                                      _T2CLKCON 000320  
                                    _CLCnGLS0 0000DC                                      _CLCnGLS1 0000DD  
                                    _CLCnGLS2 0000DE                                      _CLCnGLS3 0000DF  
                                    _CLCnSEL0 0000D8                                      _CLCnSEL1 0000D9  
                                    _CLCnSEL2 0000DA                                      _CLCnSEL3 0000DB  
                              ?_OPA_UnityGain 052D                                   _U1ERRIRbits 0002B2  
                              __size_of_putch 000A                          _INTERRUPT_Initialize 07C0  
                                    _OPA1CON0 0000A3                                      _OPA1CON1 0000A4  
                                    _OPA1CON2 0000A5                                      _OPA1CON3 0000A6  
       UART1_SetErrorHandler@interruptHandler 052D                                      _LATCbits 0004C0  
                          _IntroSplashMessage 054E                                      _PIE0bits 0004A8  
         __size_of_INTERRUPT_InterruptManager 0022                                      _PIR0bits 0004B3  
                                    _PIR3bits 0004B6                                      _PIR4bits 0004B7  
                         ?_IntroSplashMessage 052D                 ?_UART1_SetFramingErrorHandler 052D  
                                   _vfpfcnvrt 01B4                         __size_of_OPA_External 002E  
                                    _BlinkLED 0356                           __end_of_UART1_Write 0790  
                        ??_IntroSplashMessage 054C                                   _INTCON0bits 0004D6  
                       ?_INTERRUPT_Initialize 052D                                   _OPA1HWCbits 0000A7  
                           ??_TMR2_Initialize 052D                               ??_OPA_Inverting 054C  
                                    __Hrparam 0000                                    vfprintf@ap 0542  
                                 BlinkLED@cnt 052F                                      __Lrparam 0000  
                                  vfprintf@fp 053E                                  _OPA_External 064E  
                     ??_OSCILLATOR_Initialize 052D                                    ?_vfpfcnvrt 0538  
                                    __pivt0x8 0008                               ??_OPA_UnityGain 054C  
                                    __ptext10 075C                                      __ptext11 07C0  
                                    __ptext20 01B4                                      __ptext12 058C  
                                    __ptext21 02C0                                      __ptext13 05C4  
                                    __ptext22 07AE                                      __ptext14 05F2  
                                    __ptext23 0778                                      __ptext15 0620  
                                    __ptext24 0504                                      __ptext16 064E  
                                    __ptext25 0356                                      __ptext17 054E  
                                    __ptext26 06C4                                      __ptext18 067C  
                                    __ptext27 07B8                                      __ptext19 043E  
                                  _U1CON0bits 0002AB                __size_of_UART1_SetErrorHandler 000A  
               __end_of_UART1_SetErrorHandler 07AE                              _OPA_NonInverting 05F2  
                    __size_of_CLC1_Initialize 0038                                      _sw0_flag 052C  
                               __size_of_main 0196                     _UART1_OverrunErrorHandler 0552  
UART1_SetOverrunErrorHandler@interruptHandler 052D                                      _vfprintf 043E  
          __end_of_INTERRUPT_InterruptManager 06E6                    _INTERRUPT_InterruptManager 06C4  
                                   printf@fmt 0546                                   _UART1_Write 0778  
                                  _OPA1OFFSET 0000A8                ??_UART1_SetFramingErrorHandler 052F  
                             _OPA1_Initialize 075C                        ??_INTERRUPT_Initialize 052D  
                                    intlevel2 0000                       ?_PIN_MANAGER_Initialize 052D  
                                    printf@ap 054A  UART1_SetFramingErrorHandler@interruptHandler 052D  
                                 ??_vfpfcnvrt 053E                     __size_of_UART1_Initialize 0068  
              __end_of_PIN_MANAGER_Initialize 0504                             ??_CLC1_Initialize 052D  
